ARM GAS  /tmp/cc9CDFEk.s 			page 1


   1              		.cpu cortex-m4
   2              		.eabi_attribute 27, 1
   3              		.eabi_attribute 28, 1
   4              		.eabi_attribute 20, 1
   5              		.eabi_attribute 21, 1
   6              		.eabi_attribute 23, 3
   7              		.eabi_attribute 24, 1
   8              		.eabi_attribute 25, 1
   9              		.eabi_attribute 26, 1
  10              		.eabi_attribute 30, 2
  11              		.eabi_attribute 34, 1
  12              		.eabi_attribute 18, 4
  13              		.file	"bno055.c"
  14              		.text
  15              	.Ltext0:
  16              		.cfi_sections	.debug_frame
  17              		.section	.text.bno055_quaternion_w,"ax",%progbits
  18              		.align	1
  19              		.p2align 2,,3
  20              		.global	bno055_quaternion_w
  21              		.arch armv7e-m
  22              		.syntax unified
  23              		.thumb
  24              		.thumb_func
  25              		.fpu fpv4-sp-d16
  27              	bno055_quaternion_w:
  28              	.LVL0:
  29              	.LFB159:
  30              		.file 1 "Src/bno055/bno055.c"
   1:Src/bno055/bno055.c **** #include <stdint.h>
   2:Src/bno055/bno055.c **** #include <stdio.h>
   3:Src/bno055/bno055.c **** #include <stm32f4xx.h>
   4:Src/bno055/bno055.c **** 
   5:Src/bno055/bno055.c **** #include "bno055.h"
   6:Src/bno055/bno055.c **** #include "stm32f4xx_hal.h"
   7:Src/bno055/bno055.c **** #include "stm32f4xx_hal_def.h"
   8:Src/bno055/bno055.c **** #include "stm32f4xx_hal_i2c.h"
   9:Src/bno055/bno055.c **** 
  10:Src/bno055/bno055.c **** /**
  11:Src/bno055/bno055.c ****  * Initialize the Bosch BNO055 Sensor
  12:Src/bno055/bno055.c ****  * ---------------------------------------------------------------
  13:Src/bno055/bno055.c ****  *
  14:Src/bno055/bno055.c ****  *  Initializes the Bosch BNO055 Sensor with
  15:Src/bno055/bno055.c ****  *  the specified operation mode.
  16:Src/bno055/bno055.c ****  * ---------------------------------------------------------------
  17:Src/bno055/bno055.c ****  *
  18:Src/bno055/bno055.c ****  *  Args:
  19:Src/bno055/bno055.c ****  *  > `imu[bno055_t*]`: pointer to the structure to initialize
  20:Src/bno055/bno055.c ****  * ---------------------------------------------------------------
  21:Src/bno055/bno055.c ****  *
  22:Src/bno055/bno055.c ****  *  Return:
  23:Src/bno055/bno055.c ****  *  > `bool`: `true` if none of the init steps fail, `false` else
  24:Src/bno055/bno055.c ****  * ---------------------------------------------------------------
  25:Src/bno055/bno055.c ****  */
  26:Src/bno055/bno055.c **** error_bno bno055_init(bno055_t* imu) {
  27:Src/bno055/bno055.c ****     u8 id = 0;
  28:Src/bno055/bno055.c ****     error_bno err;
ARM GAS  /tmp/cc9CDFEk.s 			page 2


  29:Src/bno055/bno055.c **** 
  30:Src/bno055/bno055.c ****     imu->addr = (imu->addr << 1);
  31:Src/bno055/bno055.c ****     err = bno055_read_regs(*imu, BNO_CHIP_ID, &id, 1);
  32:Src/bno055/bno055.c ****     if (err != BNO_OK) {
  33:Src/bno055/bno055.c ****         return err;
  34:Src/bno055/bno055.c ****     }
  35:Src/bno055/bno055.c ****     if (id != BNO_DEF_CHIP_ID) {
  36:Src/bno055/bno055.c ****         return BNO_ERR_WRONG_CHIP_ID;
  37:Src/bno055/bno055.c ****     }
  38:Src/bno055/bno055.c ****     if ((err = bno055_set_opmode(imu, BNO_MODE_CONFIG)) != BNO_OK) {
  39:Src/bno055/bno055.c ****         return err;
  40:Src/bno055/bno055.c ****     }
  41:Src/bno055/bno055.c ****     HAL_Delay(2);
  42:Src/bno055/bno055.c ****     bno055_reset(imu);
  43:Src/bno055/bno055.c ****     HAL_Delay(5000);
  44:Src/bno055/bno055.c ****     if ((err = bno055_set_pwr_mode(imu, BNO_PWR_NORMAL)) != BNO_OK) {
  45:Src/bno055/bno055.c ****         return err;
  46:Src/bno055/bno055.c ****     }
  47:Src/bno055/bno055.c ****     HAL_Delay(10);
  48:Src/bno055/bno055.c ****     if ((err = bno055_set_page(imu, BNO_PAGE_0)) != BNO_OK) {
  49:Src/bno055/bno055.c ****         return err;
  50:Src/bno055/bno055.c ****     }
  51:Src/bno055/bno055.c ****     HAL_Delay(BNO_CONFIG_TIME_DELAY + 5);
  52:Src/bno055/bno055.c ****     bno055_on(imu);
  53:Src/bno055/bno055.c ****     if ((err = bno055_set_opmode(imu, imu->mode)) != BNO_OK) {
  54:Src/bno055/bno055.c ****         return err;
  55:Src/bno055/bno055.c ****     }
  56:Src/bno055/bno055.c ****     HAL_Delay(BNO_ANY_TIME_DELAY + 5);
  57:Src/bno055/bno055.c **** 
  58:Src/bno055/bno055.c ****     imu->temperature = &bno055_temperature;
  59:Src/bno055/bno055.c ****     imu->acc_x = &bno055_acc_x;
  60:Src/bno055/bno055.c ****     imu->acc_y = &bno055_acc_y;
  61:Src/bno055/bno055.c ****     imu->acc_z = &bno055_acc_z;
  62:Src/bno055/bno055.c ****     imu->acc = &bno055_acc;
  63:Src/bno055/bno055.c ****     imu->linear_acc_x = &bno055_linear_acc_x;
  64:Src/bno055/bno055.c ****     imu->linear_acc_y = &bno055_linear_acc_y;
  65:Src/bno055/bno055.c ****     imu->linear_acc_z = &bno055_linear_acc_z;
  66:Src/bno055/bno055.c ****     imu->linear_acc = &bno055_linear_acc;
  67:Src/bno055/bno055.c ****     imu->gyro_x = &bno055_gyro_x;
  68:Src/bno055/bno055.c ****     imu->gyro_y = &bno055_gyro_y;
  69:Src/bno055/bno055.c ****     imu->gyro_z = &bno055_gyro_z;
  70:Src/bno055/bno055.c ****     imu->gyro = &bno055_gyro;
  71:Src/bno055/bno055.c ****     imu->mag_x = &bno055_mag_x;
  72:Src/bno055/bno055.c ****     imu->mag_y = &bno055_mag_y;
  73:Src/bno055/bno055.c ****     imu->mag_z = &bno055_mag_z;
  74:Src/bno055/bno055.c ****     imu->mag = &bno055_mag;
  75:Src/bno055/bno055.c ****     imu->gravity_x = &bno055_gravity_x;
  76:Src/bno055/bno055.c ****     imu->gravity_y = &bno055_gravity_y;
  77:Src/bno055/bno055.c ****     imu->gravity_z = &bno055_gravity_z;
  78:Src/bno055/bno055.c ****     imu->gravity = &bno055_gravity;
  79:Src/bno055/bno055.c ****     imu->euler_yaw = &bno055_euler_yaw;
  80:Src/bno055/bno055.c ****     imu->euler_roll = &bno055_euler_roll;
  81:Src/bno055/bno055.c ****     imu->euler_pitch = &bno055_euler_pitch;
  82:Src/bno055/bno055.c ****     imu->euler = &bno055_euler;
  83:Src/bno055/bno055.c ****     imu->quaternion_w = &bno055_quaternion_w;
  84:Src/bno055/bno055.c ****     imu->quaternion_x = &bno055_quaternion_x;
  85:Src/bno055/bno055.c ****     imu->quaternion_y = &bno055_quaternion_y;
ARM GAS  /tmp/cc9CDFEk.s 			page 3


  86:Src/bno055/bno055.c ****     imu->quaternion_z = &bno055_quaternion_z;
  87:Src/bno055/bno055.c ****     imu->quaternion = &bno055_quaternion;
  88:Src/bno055/bno055.c ****     return BNO_OK;
  89:Src/bno055/bno055.c **** }
  90:Src/bno055/bno055.c **** 
  91:Src/bno055/bno055.c **** /**
  92:Src/bno055/bno055.c ****  * Bosch BNO055 read temperature function
  93:Src/bno055/bno055.c ****  * ----------------------------------------------------------------------
  94:Src/bno055/bno055.c ****  *
  95:Src/bno055/bno055.c ****  * Read the temperature of the Bosch BNO055 Sensor and store it in a
  96:Src/bno055/bno055.c ****  * specified buffer.
  97:Src/bno055/bno055.c ****  * Unit can be specified with `bno055_set_unit(...)`. (Default: Celsius)
  98:Src/bno055/bno055.c ****  * ----------------------------------------------------------------------
  99:Src/bno055/bno055.c ****  *
 100:Src/bno055/bno055.c ****  * Args:
 101:Src/bno055/bno055.c ****  *     > `imu[bno055_t*]`: BNO055 to read the temperature from
 102:Src/bno055/bno055.c ****  *     > `buf[s8*|int8_t*]`: Buffer to store the read value in
 103:Src/bno055/bno055.c ****  * ----------------------------------------------------------------------
 104:Src/bno055/bno055.c ****  *
 105:Src/bno055/bno055.c ****  * Return:
 106:Src/bno055/bno055.c ****  *     > `error_bno`: `BNO_OK` on success, `BNO_ERR_X` else.
 107:Src/bno055/bno055.c ****  * ----------------------------------------------------------------------
 108:Src/bno055/bno055.c ****  */
 109:Src/bno055/bno055.c **** error_bno bno055_temperature(bno055_t* imu, s8* buf) {
 110:Src/bno055/bno055.c ****     error_bno err;
 111:Src/bno055/bno055.c **** #ifdef BNO_AUTO_PAGE_SET
 112:Src/bno055/bno055.c ****     if ((err = bno055_set_page(imu, BNO_PAGE_0)) != BNO_OK) {
 113:Src/bno055/bno055.c ****         return err;
 114:Src/bno055/bno055.c ****     }
 115:Src/bno055/bno055.c **** #endif  // BNO_AUTO_PAGE_SET
 116:Src/bno055/bno055.c ****     u8 data = 0;
 117:Src/bno055/bno055.c ****     if ((err = bno055_read_regs(*imu, BNO_TEMP, &data, 1)) != BNO_OK) {
 118:Src/bno055/bno055.c ****         return err;
 119:Src/bno055/bno055.c ****     }
 120:Src/bno055/bno055.c ****     *buf = (imu->_temp_unit) ? data * 2 : data;
 121:Src/bno055/bno055.c ****     return BNO_OK;
 122:Src/bno055/bno055.c **** }
 123:Src/bno055/bno055.c **** 
 124:Src/bno055/bno055.c **** /**
 125:Src/bno055/bno055.c ****  * Bosch BNO055 read accelerometer data on X-axis
 126:Src/bno055/bno055.c ****  * ----------------------------------------------------------------------
 127:Src/bno055/bno055.c ****  *
 128:Src/bno055/bno055.c ****  * Reads the accelerometer data and stores the value in the specified buffer.
 129:Src/bno055/bno055.c ****  * Unit can be specified with `bno055_set_unit(...)`. (Default: m/s^2)
 130:Src/bno055/bno055.c ****  * ----------------------------------------------------------------------
 131:Src/bno055/bno055.c ****  *
 132:Src/bno055/bno055.c ****  * Args:
 133:Src/bno055/bno055.c ****  *     > `imu[bno055_t*]`: BNO055 to read the data from
 134:Src/bno055/bno055.c ****  *     > `buf[f32*]`: Buffer to store the read value in
 135:Src/bno055/bno055.c ****  * ----------------------------------------------------------------------
 136:Src/bno055/bno055.c ****  *
 137:Src/bno055/bno055.c ****  * Return:
 138:Src/bno055/bno055.c ****  *     > `error_bno`: `BNO_OK` on success, errorcode else.
 139:Src/bno055/bno055.c ****  * ----------------------------------------------------------------------
 140:Src/bno055/bno055.c ****  */
 141:Src/bno055/bno055.c **** error_bno bno055_acc_x(bno055_t* imu, f32* buf) {
 142:Src/bno055/bno055.c ****     error_bno err;
ARM GAS  /tmp/cc9CDFEk.s 			page 4


 143:Src/bno055/bno055.c **** #ifdef BNO_AUTO_PAGE_SET
 144:Src/bno055/bno055.c ****     if ((err = bno055_set_page(imu, BNO_PAGE_0)) != BNO_OK) {
 145:Src/bno055/bno055.c ****         return err;
 146:Src/bno055/bno055.c ****     }
 147:Src/bno055/bno055.c **** #endif  // BNO_AUTO_PAGE_SET
 148:Src/bno055/bno055.c ****     u8 data[2];
 149:Src/bno055/bno055.c ****     if ((err = bno055_read_regs(*imu, BNO_ACC_DATA_X_LSB, data, 2)) != BNO_OK) {
 150:Src/bno055/bno055.c ****         return err;
 151:Src/bno055/bno055.c ****     }
 152:Src/bno055/bno055.c **** 
 153:Src/bno055/bno055.c ****     *buf = (s16)((data[1] << 8) | data[0]) /
 154:Src/bno055/bno055.c ****            ((imu->_acc_unit == BNO_ACC_UNITSEL_M_S2) ? BNO_ACC_SCALE_M_2
 155:Src/bno055/bno055.c ****                                                      : BNO_ACC_SCALE_MG);
 156:Src/bno055/bno055.c ****     return BNO_OK;
 157:Src/bno055/bno055.c **** };
 158:Src/bno055/bno055.c **** 
 159:Src/bno055/bno055.c **** /**
 160:Src/bno055/bno055.c ****  * Bosch BNO055 read accelerometer data on Y-axis
 161:Src/bno055/bno055.c ****  * ----------------------------------------------------------------------
 162:Src/bno055/bno055.c ****  *
 163:Src/bno055/bno055.c ****  * Reads the accelerometer data and stores the value in the specified buffer.
 164:Src/bno055/bno055.c ****  * Unit can be specified with `bno055_set_unit(...)`. (Default: m/s^2)
 165:Src/bno055/bno055.c ****  * ----------------------------------------------------------------------
 166:Src/bno055/bno055.c ****  *
 167:Src/bno055/bno055.c ****  * Args:
 168:Src/bno055/bno055.c ****  *     > `imu[bno055_t*]`: BNO055 to read the data from
 169:Src/bno055/bno055.c ****  *     > `buf[f32*]`: Buffer to store the read value in
 170:Src/bno055/bno055.c ****  * ----------------------------------------------------------------------
 171:Src/bno055/bno055.c ****  *
 172:Src/bno055/bno055.c ****  * Return:
 173:Src/bno055/bno055.c ****  *     > `error_bno`: `BNO_OK` on success, errorcode else.
 174:Src/bno055/bno055.c ****  * ----------------------------------------------------------------------
 175:Src/bno055/bno055.c ****  */
 176:Src/bno055/bno055.c **** error_bno bno055_acc_y(bno055_t* imu, f32* buf) {
 177:Src/bno055/bno055.c ****     error_bno err;
 178:Src/bno055/bno055.c **** #ifdef BNO_AUTO_PAGE_SET
 179:Src/bno055/bno055.c ****     if ((err = bno055_set_page(imu, BNO_PAGE_0)) != BNO_OK) {
 180:Src/bno055/bno055.c ****         return err;
 181:Src/bno055/bno055.c ****     }
 182:Src/bno055/bno055.c **** #endif  // BNO_AUTO_PAGE_SET
 183:Src/bno055/bno055.c ****     u8 data[2];
 184:Src/bno055/bno055.c ****     if ((err = bno055_read_regs(*imu, BNO_ACC_DATA_Y_LSB, data, 2)) != BNO_OK) {
 185:Src/bno055/bno055.c ****         return err;
 186:Src/bno055/bno055.c ****     }
 187:Src/bno055/bno055.c **** 
 188:Src/bno055/bno055.c ****     *buf = (s16)((data[1] << 8) | data[0]) /
 189:Src/bno055/bno055.c ****            ((imu->_acc_unit == BNO_ACC_UNITSEL_M_S2) ? BNO_ACC_SCALE_M_2
 190:Src/bno055/bno055.c ****                                                      : BNO_ACC_SCALE_MG);
 191:Src/bno055/bno055.c ****     return BNO_OK;
 192:Src/bno055/bno055.c **** };
 193:Src/bno055/bno055.c **** 
 194:Src/bno055/bno055.c **** /**
 195:Src/bno055/bno055.c ****  * Bosch BNO055 read accelerometer data on Z-axis
 196:Src/bno055/bno055.c ****  * ----------------------------------------------------------------------
 197:Src/bno055/bno055.c ****  *
 198:Src/bno055/bno055.c ****  * Reads the accelerometer data and stores the value in the specified buffer.
 199:Src/bno055/bno055.c ****  * Unit can be specified with `bno055_set_unit(...)`. (Default: m/s^2)
ARM GAS  /tmp/cc9CDFEk.s 			page 5


 200:Src/bno055/bno055.c ****  * ----------------------------------------------------------------------
 201:Src/bno055/bno055.c ****  *
 202:Src/bno055/bno055.c ****  * Args:
 203:Src/bno055/bno055.c ****  *     > `imu[bno055_t*]`: BNO055 to read the data from
 204:Src/bno055/bno055.c ****  *     > `buf[f32*]`: Buffer to store the read value in
 205:Src/bno055/bno055.c ****  * ----------------------------------------------------------------------
 206:Src/bno055/bno055.c ****  *
 207:Src/bno055/bno055.c ****  * Return:
 208:Src/bno055/bno055.c ****  *     > `error_bno`: `BNO_OK` on success, errorcode else.
 209:Src/bno055/bno055.c ****  * ----------------------------------------------------------------------
 210:Src/bno055/bno055.c ****  */
 211:Src/bno055/bno055.c **** error_bno bno055_acc_z(bno055_t* imu, f32* buf) {
 212:Src/bno055/bno055.c ****     error_bno err;
 213:Src/bno055/bno055.c **** #ifdef BNO_AUTO_PAGE_SET
 214:Src/bno055/bno055.c ****     if ((err = bno055_set_page(imu, BNO_PAGE_0)) != BNO_OK) {
 215:Src/bno055/bno055.c ****         return err;
 216:Src/bno055/bno055.c ****     }
 217:Src/bno055/bno055.c **** #endif  // BNO_AUTO_PAGE_SET
 218:Src/bno055/bno055.c ****     u8 data[2];
 219:Src/bno055/bno055.c ****     if ((err = bno055_read_regs(*imu, BNO_ACC_DATA_Z_LSB, data, 2)) != BNO_OK) {
 220:Src/bno055/bno055.c ****         return err;
 221:Src/bno055/bno055.c ****     }
 222:Src/bno055/bno055.c **** 
 223:Src/bno055/bno055.c ****     *buf = (s16)((data[1] << 8) | data[0]) /
 224:Src/bno055/bno055.c ****            ((imu->_acc_unit == BNO_ACC_UNITSEL_M_S2) ? BNO_ACC_SCALE_M_2
 225:Src/bno055/bno055.c ****                                                      : BNO_ACC_SCALE_MG);
 226:Src/bno055/bno055.c ****     return BNO_OK;
 227:Src/bno055/bno055.c **** };
 228:Src/bno055/bno055.c **** 
 229:Src/bno055/bno055.c **** /**
 230:Src/bno055/bno055.c ****  * Bosch BNO055 read acceleration data on all axis
 231:Src/bno055/bno055.c ****  * ----------------------------------------------------------------------
 232:Src/bno055/bno055.c ****  *
 233:Src/bno055/bno055.c ****  * Reads the acceleration data and stores the value in the specified
 234:Src/bno055/bno055.c ****  * vector buffer. Unit can be specified with `bno055_set_unit(...)`. (Default:
 235:Src/bno055/bno055.c ****  * m/s^2)
 236:Src/bno055/bno055.c ****  * ----------------------------------------------------------------------
 237:Src/bno055/bno055.c ****  *
 238:Src/bno055/bno055.c ****  * Args:
 239:Src/bno055/bno055.c ****  *     > `imu[bno055_t*]`: BNO055 to read the data from
 240:Src/bno055/bno055.c ****  *     > `buf[bno055_vec3_t*]`: Buffer to store the read value in
 241:Src/bno055/bno055.c ****  * ----------------------------------------------------------------------
 242:Src/bno055/bno055.c ****  *
 243:Src/bno055/bno055.c ****  * Return:
 244:Src/bno055/bno055.c ****  *     > `error_bno`: `BNO_OK` on success, errorcode else.
 245:Src/bno055/bno055.c ****  * ----------------------------------------------------------------------
 246:Src/bno055/bno055.c ****  */
 247:Src/bno055/bno055.c **** error_bno bno055_acc(bno055_t* imu, bno055_vec3_t* xyz) {
 248:Src/bno055/bno055.c ****     error_bno err;
 249:Src/bno055/bno055.c **** #ifdef BNO_AUTO_PAGE_SET
 250:Src/bno055/bno055.c ****     if ((err = bno055_set_page(imu, BNO_PAGE_0)) != BNO_OK) {
 251:Src/bno055/bno055.c ****         return err;
 252:Src/bno055/bno055.c ****     }
 253:Src/bno055/bno055.c **** #endif  // BNO_AUTO_PAGE_SET
 254:Src/bno055/bno055.c ****     u8 data[6];
 255:Src/bno055/bno055.c ****     if ((err = bno055_read_regs(*imu, BNO_ACC_DATA_X_LSB, data, 6)) != BNO_OK) {
 256:Src/bno055/bno055.c ****         return err;
ARM GAS  /tmp/cc9CDFEk.s 			page 6


 257:Src/bno055/bno055.c ****     }
 258:Src/bno055/bno055.c ****     float scale = (imu->_acc_unit == BNO_ACC_UNITSEL_M_S2) ? BNO_ACC_SCALE_M_2
 259:Src/bno055/bno055.c ****                                                            : BNO_ACC_SCALE_MG;
 260:Src/bno055/bno055.c ****     xyz->x = (s16)((data[1] << 8) | data[0]) / scale;
 261:Src/bno055/bno055.c ****     xyz->y = (s16)((data[3] << 8) | data[2]) / scale;
 262:Src/bno055/bno055.c ****     xyz->z = (s16)((data[5] << 8) | data[4]) / scale;
 263:Src/bno055/bno055.c **** 
 264:Src/bno055/bno055.c ****     return BNO_OK;
 265:Src/bno055/bno055.c **** };
 266:Src/bno055/bno055.c **** 
 267:Src/bno055/bno055.c **** /**
 268:Src/bno055/bno055.c ****  * Bosch BNO055 read linear acceleration data on X-axis
 269:Src/bno055/bno055.c ****  * ----------------------------------------------------------------------
 270:Src/bno055/bno055.c ****  *
 271:Src/bno055/bno055.c ****  * Reads the linear acceleration data and stores the value in the specified
 272:Src/bno055/bno055.c ****  * buffer. Unit can be specified with `bno055_set_unit(...)`. (Default: m/s^2)
 273:Src/bno055/bno055.c ****  * ----------------------------------------------------------------------
 274:Src/bno055/bno055.c ****  *
 275:Src/bno055/bno055.c ****  * Args:
 276:Src/bno055/bno055.c ****  *     > `imu[bno055_t*]`: BNO055 to read the data from
 277:Src/bno055/bno055.c ****  *     > `buf[f32*]`: Buffer to store the read value in
 278:Src/bno055/bno055.c ****  * ----------------------------------------------------------------------
 279:Src/bno055/bno055.c ****  *
 280:Src/bno055/bno055.c ****  * Return:
 281:Src/bno055/bno055.c ****  *     > `error_bno`: `BNO_OK` on success, errorcode else.
 282:Src/bno055/bno055.c ****  * ----------------------------------------------------------------------
 283:Src/bno055/bno055.c ****  */
 284:Src/bno055/bno055.c **** error_bno bno055_linear_acc_x(bno055_t* imu, f32* buf) {
 285:Src/bno055/bno055.c ****     error_bno err;
 286:Src/bno055/bno055.c **** #ifdef BNO_AUTO_PAGE_SET
 287:Src/bno055/bno055.c ****     if ((err = bno055_set_page(imu, BNO_PAGE_0)) != BNO_OK) {
 288:Src/bno055/bno055.c ****         return err;
 289:Src/bno055/bno055.c ****     }
 290:Src/bno055/bno055.c **** #endif  // BNO_AUTO_PAGE_SET
 291:Src/bno055/bno055.c ****     u8 data[2];
 292:Src/bno055/bno055.c ****     if ((err = bno055_read_regs(*imu, BNO_LIA_DATA_X_LSB, data, 2)) != BNO_OK) {
 293:Src/bno055/bno055.c ****         return err;
 294:Src/bno055/bno055.c ****     }
 295:Src/bno055/bno055.c **** 
 296:Src/bno055/bno055.c ****     *buf = (s16)((data[1] << 8) | data[0]) /
 297:Src/bno055/bno055.c ****            ((imu->_acc_unit == BNO_ACC_UNITSEL_M_S2) ? BNO_ACC_SCALE_M_2
 298:Src/bno055/bno055.c ****                                                      : BNO_ACC_SCALE_MG);
 299:Src/bno055/bno055.c ****     return BNO_OK;
 300:Src/bno055/bno055.c **** };
 301:Src/bno055/bno055.c **** 
 302:Src/bno055/bno055.c **** /**
 303:Src/bno055/bno055.c ****  * Bosch BNO055 read linear acceleration data on Y-axis
 304:Src/bno055/bno055.c ****  * ----------------------------------------------------------------------
 305:Src/bno055/bno055.c ****  *
 306:Src/bno055/bno055.c ****  * Reads the linear acceleration data and stores the value in the specified
 307:Src/bno055/bno055.c ****  * buffer. Unit can be specified with `bno055_set_unit(...)`. (Default: m/s^2)
 308:Src/bno055/bno055.c ****  * ----------------------------------------------------------------------
 309:Src/bno055/bno055.c ****  *
 310:Src/bno055/bno055.c ****  * Args:
 311:Src/bno055/bno055.c ****  *     > `imu[bno055_t*]`: BNO055 to read the data from
 312:Src/bno055/bno055.c ****  *     > `buf[f32*]`: Buffer to store the read value in
 313:Src/bno055/bno055.c ****  * ----------------------------------------------------------------------
ARM GAS  /tmp/cc9CDFEk.s 			page 7


 314:Src/bno055/bno055.c ****  *
 315:Src/bno055/bno055.c ****  * Return:
 316:Src/bno055/bno055.c ****  *     > `error_bno`: `BNO_OK` on success, errorcode else.
 317:Src/bno055/bno055.c ****  * ----------------------------------------------------------------------
 318:Src/bno055/bno055.c ****  */
 319:Src/bno055/bno055.c **** error_bno bno055_linear_acc_y(bno055_t* imu, f32* buf) {
 320:Src/bno055/bno055.c ****     error_bno err;
 321:Src/bno055/bno055.c **** #ifdef BNO_AUTO_PAGE_SET
 322:Src/bno055/bno055.c ****     if ((err = bno055_set_page(imu, BNO_PAGE_0)) != BNO_OK) {
 323:Src/bno055/bno055.c ****         return err;
 324:Src/bno055/bno055.c ****     }
 325:Src/bno055/bno055.c **** #endif  // BNO_AUTO_PAGE_SET
 326:Src/bno055/bno055.c ****     u8 data[2];
 327:Src/bno055/bno055.c ****     if ((err = bno055_read_regs(*imu, BNO_LIA_DATA_Y_LSB, data, 2)) != BNO_OK) {
 328:Src/bno055/bno055.c ****         return err;
 329:Src/bno055/bno055.c ****     }
 330:Src/bno055/bno055.c **** 
 331:Src/bno055/bno055.c ****     *buf = (s16)((data[1] << 8) | data[0]) /
 332:Src/bno055/bno055.c ****            ((imu->_acc_unit == BNO_ACC_UNITSEL_M_S2) ? BNO_ACC_SCALE_M_2
 333:Src/bno055/bno055.c ****                                                      : BNO_ACC_SCALE_MG);
 334:Src/bno055/bno055.c ****     return BNO_OK;
 335:Src/bno055/bno055.c **** };
 336:Src/bno055/bno055.c **** 
 337:Src/bno055/bno055.c **** /**
 338:Src/bno055/bno055.c ****  * Bosch BNO055 read linear acceleration data on Z-axis
 339:Src/bno055/bno055.c ****  * ----------------------------------------------------------------------
 340:Src/bno055/bno055.c ****  *
 341:Src/bno055/bno055.c ****  * Reads the linear acceleration data and stores the value in the specified
 342:Src/bno055/bno055.c ****  * buffer. Unit can be specified with `bno055_set_unit(...)`. (Default: m/s^2)
 343:Src/bno055/bno055.c ****  * ----------------------------------------------------------------------
 344:Src/bno055/bno055.c ****  *
 345:Src/bno055/bno055.c ****  * Args:
 346:Src/bno055/bno055.c ****  *     > `imu[bno055_t*]`: BNO055 to read the data from
 347:Src/bno055/bno055.c ****  *     > `buf[f32*]`: Buffer to store the read value in
 348:Src/bno055/bno055.c ****  * ----------------------------------------------------------------------
 349:Src/bno055/bno055.c ****  *
 350:Src/bno055/bno055.c ****  * Return:
 351:Src/bno055/bno055.c ****  *     > `error_bno`: `BNO_OK` on success, errorcode else.
 352:Src/bno055/bno055.c ****  * ----------------------------------------------------------------------
 353:Src/bno055/bno055.c ****  */
 354:Src/bno055/bno055.c **** error_bno bno055_linear_acc_z(bno055_t* imu, f32* buf) {
 355:Src/bno055/bno055.c ****     error_bno err;
 356:Src/bno055/bno055.c **** #ifdef BNO_AUTO_PAGE_SET
 357:Src/bno055/bno055.c ****     if ((err = bno055_set_page(imu, BNO_PAGE_0)) != BNO_OK) {
 358:Src/bno055/bno055.c ****         return err;
 359:Src/bno055/bno055.c ****     }
 360:Src/bno055/bno055.c **** #endif  // BNO_AUTO_PAGE_SET
 361:Src/bno055/bno055.c ****     u8 data[2];
 362:Src/bno055/bno055.c ****     if ((err = bno055_read_regs(*imu, BNO_LIA_DATA_Z_LSB, data, 2)) != BNO_OK) {
 363:Src/bno055/bno055.c ****         return err;
 364:Src/bno055/bno055.c ****     }
 365:Src/bno055/bno055.c **** 
 366:Src/bno055/bno055.c ****     *buf = (s16)((data[1] << 8) | data[0]) /
 367:Src/bno055/bno055.c ****            ((imu->_acc_unit == BNO_ACC_UNITSEL_M_S2) ? BNO_ACC_SCALE_M_2
 368:Src/bno055/bno055.c ****                                                      : BNO_ACC_SCALE_MG);
 369:Src/bno055/bno055.c ****     return BNO_OK;
 370:Src/bno055/bno055.c **** };
ARM GAS  /tmp/cc9CDFEk.s 			page 8


 371:Src/bno055/bno055.c **** 
 372:Src/bno055/bno055.c **** /**
 373:Src/bno055/bno055.c ****  * Bosch BNO055 read linear acceleration data on all axis
 374:Src/bno055/bno055.c ****  * ----------------------------------------------------------------------
 375:Src/bno055/bno055.c ****  *
 376:Src/bno055/bno055.c ****  * Reads the linear acceleration data and stores the value in the specified
 377:Src/bno055/bno055.c ****  * vector buffer. Unit can be specified with `bno055_set_unit(...)`. (Default:
 378:Src/bno055/bno055.c ****  * m/s^2)
 379:Src/bno055/bno055.c ****  * ----------------------------------------------------------------------
 380:Src/bno055/bno055.c ****  *
 381:Src/bno055/bno055.c ****  * Args:
 382:Src/bno055/bno055.c ****  *     > `imu[bno055_t*]`: BNO055 to read the data from
 383:Src/bno055/bno055.c ****  *     > `buf[bno055_vec3_t*]`: Buffer to store the read value in
 384:Src/bno055/bno055.c ****  * ----------------------------------------------------------------------
 385:Src/bno055/bno055.c ****  *
 386:Src/bno055/bno055.c ****  * Return:
 387:Src/bno055/bno055.c ****  *     > `error_bno`: `BNO_OK` on success, errorcode else.
 388:Src/bno055/bno055.c ****  * ----------------------------------------------------------------------
 389:Src/bno055/bno055.c ****  */
 390:Src/bno055/bno055.c **** error_bno bno055_linear_acc(bno055_t* imu, bno055_vec3_t* xyz) {
 391:Src/bno055/bno055.c ****     error_bno err;
 392:Src/bno055/bno055.c **** #ifdef BNO_AUTO_PAGE_SET
 393:Src/bno055/bno055.c ****     if ((err = bno055_set_page(imu, BNO_PAGE_0)) != BNO_OK) {
 394:Src/bno055/bno055.c ****         return err;
 395:Src/bno055/bno055.c ****     }
 396:Src/bno055/bno055.c **** #endif  // BNO_AUTO_PAGE_SET
 397:Src/bno055/bno055.c ****     u8 data[6];
 398:Src/bno055/bno055.c ****     if ((err = bno055_read_regs(*imu, BNO_LIA_DATA_X_LSB, data, 6)) != BNO_OK) {
 399:Src/bno055/bno055.c ****         return err;
 400:Src/bno055/bno055.c ****     }
 401:Src/bno055/bno055.c ****     float scale = (imu->_acc_unit == BNO_ACC_UNITSEL_M_S2) ? BNO_ACC_SCALE_M_2
 402:Src/bno055/bno055.c ****                                                            : BNO_ACC_SCALE_MG;
 403:Src/bno055/bno055.c ****     xyz->x = (s16)((data[1] << 8) | data[0]) / scale;
 404:Src/bno055/bno055.c ****     xyz->y = (s16)((data[3] << 8) | data[2]) / scale;
 405:Src/bno055/bno055.c ****     xyz->z = (s16)((data[5] << 8) | data[4]) / scale;
 406:Src/bno055/bno055.c **** 
 407:Src/bno055/bno055.c ****     return BNO_OK;
 408:Src/bno055/bno055.c **** };
 409:Src/bno055/bno055.c **** 
 410:Src/bno055/bno055.c **** /**
 411:Src/bno055/bno055.c ****  * Bosch BNO055 read gyroscope data on X-axis
 412:Src/bno055/bno055.c ****  * ----------------------------------------------------------------------
 413:Src/bno055/bno055.c ****  *
 414:Src/bno055/bno055.c ****  * Reads the gyroscope data and stores the value in the specified
 415:Src/bno055/bno055.c ****  * buffer. Unit can be specified with `bno055_set_unit(...)`. (Default: m/s^2)
 416:Src/bno055/bno055.c ****  * ----------------------------------------------------------------------
 417:Src/bno055/bno055.c ****  *
 418:Src/bno055/bno055.c ****  * Args:
 419:Src/bno055/bno055.c ****  *     > `imu[bno055_t*]`: BNO055 to read the data from
 420:Src/bno055/bno055.c ****  *     > `buf[f32*]`: Buffer to store the read value in
 421:Src/bno055/bno055.c ****  * ----------------------------------------------------------------------
 422:Src/bno055/bno055.c ****  *
 423:Src/bno055/bno055.c ****  * Return:
 424:Src/bno055/bno055.c ****  *     > `error_bno`: `BNO_OK` on success, errorcode else.
 425:Src/bno055/bno055.c ****  * ----------------------------------------------------------------------
 426:Src/bno055/bno055.c ****  */
 427:Src/bno055/bno055.c **** error_bno bno055_gyro_x(bno055_t* imu, f32* buf) {
ARM GAS  /tmp/cc9CDFEk.s 			page 9


 428:Src/bno055/bno055.c ****     error_bno err;
 429:Src/bno055/bno055.c **** #ifdef BNO_AUTO_PAGE_SET
 430:Src/bno055/bno055.c ****     if ((err = bno055_set_page(imu, BNO_PAGE_0)) != BNO_OK) {
 431:Src/bno055/bno055.c ****         return err;
 432:Src/bno055/bno055.c ****     }
 433:Src/bno055/bno055.c **** #endif  // BNO_AUTO_PAGE_SET
 434:Src/bno055/bno055.c ****     u8 data[2];
 435:Src/bno055/bno055.c ****     if ((err = bno055_read_regs(*imu, BNO_GYR_DATA_X_LSB, data, 2)) != BNO_OK) {
 436:Src/bno055/bno055.c ****         return err;
 437:Src/bno055/bno055.c ****     }
 438:Src/bno055/bno055.c **** 
 439:Src/bno055/bno055.c ****     *buf = (s16)((data[1] << 8) | data[0]) /
 440:Src/bno055/bno055.c ****            ((imu->_gyr_unit == BNO_GYR_UNIT_DPS) ? BNO_GYR_SCALE_DPS
 441:Src/bno055/bno055.c ****                                                  : BNO_GYR_SCALE_RPS);
 442:Src/bno055/bno055.c ****     return BNO_OK;
 443:Src/bno055/bno055.c **** };
 444:Src/bno055/bno055.c **** 
 445:Src/bno055/bno055.c **** /**
 446:Src/bno055/bno055.c ****  * Bosch BNO055 read gyroscope data on Y-axis
 447:Src/bno055/bno055.c ****  * ----------------------------------------------------------------------
 448:Src/bno055/bno055.c ****  *
 449:Src/bno055/bno055.c ****  * Reads the gyroscope data and stores the value in the specified
 450:Src/bno055/bno055.c ****  * buffer. Unit can be specified with `bno055_set_unit(...)`. (Default: m/s^2)
 451:Src/bno055/bno055.c ****  * ----------------------------------------------------------------------
 452:Src/bno055/bno055.c ****  *
 453:Src/bno055/bno055.c ****  * Args:
 454:Src/bno055/bno055.c ****  *     > `imu[bno055_t*]`: BNO055 to read the data from
 455:Src/bno055/bno055.c ****  *     > `buf[f32*]`: Buffer to store the read value in
 456:Src/bno055/bno055.c ****  * ----------------------------------------------------------------------
 457:Src/bno055/bno055.c ****  *
 458:Src/bno055/bno055.c ****  * Return:
 459:Src/bno055/bno055.c ****  *     > `error_bno`: `BNO_OK` on success, errorcode else.
 460:Src/bno055/bno055.c ****  * ----------------------------------------------------------------------
 461:Src/bno055/bno055.c ****  */
 462:Src/bno055/bno055.c **** error_bno bno055_gyro_y(bno055_t* imu, f32* buf) {
 463:Src/bno055/bno055.c ****     error_bno err;
 464:Src/bno055/bno055.c **** #ifdef BNO_AUTO_PAGE_SET
 465:Src/bno055/bno055.c ****     if ((err = bno055_set_page(imu, BNO_PAGE_0)) != BNO_OK) {
 466:Src/bno055/bno055.c ****         return err;
 467:Src/bno055/bno055.c ****     }
 468:Src/bno055/bno055.c **** #endif  // BNO_AUTO_PAGE_SET
 469:Src/bno055/bno055.c ****     u8 data[2];
 470:Src/bno055/bno055.c ****     if ((err = bno055_read_regs(*imu, BNO_GYR_DATA_Y_LSB, data, 2)) != BNO_OK) {
 471:Src/bno055/bno055.c ****         return err;
 472:Src/bno055/bno055.c ****     }
 473:Src/bno055/bno055.c **** 
 474:Src/bno055/bno055.c ****     *buf = (s16)((data[1] << 8) | data[0]) /
 475:Src/bno055/bno055.c ****            ((imu->_gyr_unit == BNO_GYR_UNIT_DPS) ? BNO_GYR_SCALE_DPS
 476:Src/bno055/bno055.c ****                                                  : BNO_GYR_SCALE_RPS);
 477:Src/bno055/bno055.c ****     return BNO_OK;
 478:Src/bno055/bno055.c **** };
 479:Src/bno055/bno055.c **** 
 480:Src/bno055/bno055.c **** /**
 481:Src/bno055/bno055.c ****  * Bosch BNO055 read gyroscope data on Z-axis
 482:Src/bno055/bno055.c ****  * ----------------------------------------------------------------------
 483:Src/bno055/bno055.c ****  *
 484:Src/bno055/bno055.c ****  * Reads the gyroscope data and stores the value in the specified
ARM GAS  /tmp/cc9CDFEk.s 			page 10


 485:Src/bno055/bno055.c ****  * buffer. Unit can be specified with `bno055_set_unit(...)`. (Default: m/s^2)
 486:Src/bno055/bno055.c ****  * ----------------------------------------------------------------------
 487:Src/bno055/bno055.c ****  *
 488:Src/bno055/bno055.c ****  * Args:
 489:Src/bno055/bno055.c ****  *     > `imu[bno055_t*]`: BNO055 to read the data from
 490:Src/bno055/bno055.c ****  *     > `buf[f32*]`: Buffer to store the read value in
 491:Src/bno055/bno055.c ****  * ----------------------------------------------------------------------
 492:Src/bno055/bno055.c ****  *
 493:Src/bno055/bno055.c ****  * Return:
 494:Src/bno055/bno055.c ****  *     > `error_bno`: `BNO_OK` on success, errorcode else.
 495:Src/bno055/bno055.c ****  * ----------------------------------------------------------------------
 496:Src/bno055/bno055.c ****  */
 497:Src/bno055/bno055.c **** error_bno bno055_gyro_z(bno055_t* imu, f32* buf) {
 498:Src/bno055/bno055.c ****     error_bno err;
 499:Src/bno055/bno055.c **** #ifdef BNO_AUTO_PAGE_SET
 500:Src/bno055/bno055.c ****     if ((err = bno055_set_page(imu, BNO_PAGE_0)) != BNO_OK) {
 501:Src/bno055/bno055.c ****         return err;
 502:Src/bno055/bno055.c ****     }
 503:Src/bno055/bno055.c **** #endif  // BNO_AUTO_PAGE_SET
 504:Src/bno055/bno055.c ****     u8 data[2];
 505:Src/bno055/bno055.c ****     if ((err = bno055_read_regs(*imu, BNO_GYR_DATA_Z_LSB, data, 2)) != BNO_OK) {
 506:Src/bno055/bno055.c ****         return err;
 507:Src/bno055/bno055.c ****     }
 508:Src/bno055/bno055.c **** 
 509:Src/bno055/bno055.c ****     *buf = (s16)((data[1] << 8) | data[0]) /
 510:Src/bno055/bno055.c ****            ((imu->_gyr_unit == BNO_GYR_UNIT_DPS) ? BNO_GYR_SCALE_DPS
 511:Src/bno055/bno055.c ****                                                  : BNO_GYR_SCALE_RPS);
 512:Src/bno055/bno055.c ****     return BNO_OK;
 513:Src/bno055/bno055.c **** };
 514:Src/bno055/bno055.c **** 
 515:Src/bno055/bno055.c **** /**
 516:Src/bno055/bno055.c ****  * Bosch BNO055 read gyroscope data on all axis
 517:Src/bno055/bno055.c ****  * ----------------------------------------------------------------------
 518:Src/bno055/bno055.c ****  *
 519:Src/bno055/bno055.c ****  * Reads the gyroscope data and stores the value in the specified
 520:Src/bno055/bno055.c ****  * vector buffer. Unit can be specified with `bno055_set_unit(...)`. (Default:
 521:Src/bno055/bno055.c ****  * m/s^2)
 522:Src/bno055/bno055.c ****  *
 523:Src/bno055/bno055.c ****  * FIX: MCU restart when moving
 524:Src/bno055/bno055.c ****  * ----------------------------------------------------------------------
 525:Src/bno055/bno055.c ****  *
 526:Src/bno055/bno055.c ****  * Args:
 527:Src/bno055/bno055.c ****  *     > `imu[bno055_t*]`: BNO055 to read the data from
 528:Src/bno055/bno055.c ****  *     > `buf[bno055_vec3_t*]`: Buffer to store the read value in
 529:Src/bno055/bno055.c ****  * ----------------------------------------------------------------------
 530:Src/bno055/bno055.c ****  *
 531:Src/bno055/bno055.c ****  * Return:
 532:Src/bno055/bno055.c ****  *     > `error_bno`: `BNO_OK` on success, errorcode else.
 533:Src/bno055/bno055.c ****  * ----------------------------------------------------------------------
 534:Src/bno055/bno055.c ****  */
 535:Src/bno055/bno055.c **** error_bno bno055_gyro(bno055_t* imu, bno055_vec3_t* xyz) {
 536:Src/bno055/bno055.c ****     error_bno err;
 537:Src/bno055/bno055.c **** #ifdef BNO_AUTO_PAGE_SET
 538:Src/bno055/bno055.c ****     if ((err = bno055_set_page(imu, BNO_PAGE_0)) != BNO_OK) {
 539:Src/bno055/bno055.c ****         return err;
 540:Src/bno055/bno055.c ****     }
 541:Src/bno055/bno055.c **** #endif  // BNO_AUTO_PAGE_SET
ARM GAS  /tmp/cc9CDFEk.s 			page 11


 542:Src/bno055/bno055.c ****     u8 data[6];
 543:Src/bno055/bno055.c ****     if ((err = bno055_read_regs(*imu, BNO_GYR_DATA_X_LSB, data, 6)) != BNO_OK) {
 544:Src/bno055/bno055.c ****         return err;
 545:Src/bno055/bno055.c ****     }
 546:Src/bno055/bno055.c **** 
 547:Src/bno055/bno055.c ****     f32 scale = (imu->_gyr_unit == BNO_GYR_UNIT_DPS) ? BNO_GYR_SCALE_DPS
 548:Src/bno055/bno055.c ****                                                      : BNO_GYR_SCALE_RPS;
 549:Src/bno055/bno055.c ****     xyz->x = (s16)((data[1] << 8) | data[0]) / scale;
 550:Src/bno055/bno055.c ****     xyz->y = (s16)((data[3] << 8) | data[2]) / scale;
 551:Src/bno055/bno055.c ****     xyz->z = (s16)((data[5] << 8) | data[4]) / scale;
 552:Src/bno055/bno055.c **** 
 553:Src/bno055/bno055.c ****     return BNO_OK;
 554:Src/bno055/bno055.c **** }
 555:Src/bno055/bno055.c **** 
 556:Src/bno055/bno055.c **** /**
 557:Src/bno055/bno055.c ****  * Bosch BNO055 read magnetometer data on X-axis
 558:Src/bno055/bno055.c ****  * ----------------------------------------------------------------------
 559:Src/bno055/bno055.c ****  *
 560:Src/bno055/bno055.c ****  * Reads the magnetometer data and stores the value in the specified
 561:Src/bno055/bno055.c ****  * buffer. Unit is `[uT]`.
 562:Src/bno055/bno055.c **** 
 563:Src/bno055/bno055.c ****  * ----------------------------------------------------------------------
 564:Src/bno055/bno055.c ****  *
 565:Src/bno055/bno055.c ****  * Args:
 566:Src/bno055/bno055.c ****  *     > `imu[bno055_t*]`: BNO055 to read the data from
 567:Src/bno055/bno055.c ****  *     > `buf[f32*]`: Buffer to store the read value in
 568:Src/bno055/bno055.c ****  * ----------------------------------------------------------------------
 569:Src/bno055/bno055.c ****  *
 570:Src/bno055/bno055.c ****  * Return:
 571:Src/bno055/bno055.c ****  *     > `error_bno`: `BNO_OK` on success, errorcode else.
 572:Src/bno055/bno055.c ****  * ----------------------------------------------------------------------
 573:Src/bno055/bno055.c ****  */
 574:Src/bno055/bno055.c **** error_bno bno055_mag_x(bno055_t* imu, f32* buf) {
 575:Src/bno055/bno055.c ****     error_bno err;
 576:Src/bno055/bno055.c **** #ifdef BNO_AUTO_PAGE_SET
 577:Src/bno055/bno055.c ****     if ((err = bno055_set_page(imu, BNO_PAGE_0)) != BNO_OK) {
 578:Src/bno055/bno055.c ****         return err;
 579:Src/bno055/bno055.c ****     }
 580:Src/bno055/bno055.c **** #endif  // BNO_AUTO_PAGE_SET
 581:Src/bno055/bno055.c ****     u8 data[2];
 582:Src/bno055/bno055.c ****     if ((err = bno055_read_regs(*imu, BNO_MAG_DATA_X_LSB, data, 2)) != BNO_OK) {
 583:Src/bno055/bno055.c ****         return err;
 584:Src/bno055/bno055.c ****     }
 585:Src/bno055/bno055.c **** 
 586:Src/bno055/bno055.c ****     *buf = (s16)((data[1] << 8) | data[0]) / BNO_MAG_SCALE;
 587:Src/bno055/bno055.c ****     return BNO_OK;
 588:Src/bno055/bno055.c **** }
 589:Src/bno055/bno055.c **** 
 590:Src/bno055/bno055.c **** /**
 591:Src/bno055/bno055.c ****  * Bosch BNO055 read magnetometer data on Y-axis
 592:Src/bno055/bno055.c ****  * ----------------------------------------------------------------------
 593:Src/bno055/bno055.c ****  *
 594:Src/bno055/bno055.c ****  * Reads the magnetometer data and stores the value in the specified
 595:Src/bno055/bno055.c ****  * buffer. Unit is `[uT]`.
 596:Src/bno055/bno055.c **** 
 597:Src/bno055/bno055.c ****  * ----------------------------------------------------------------------
 598:Src/bno055/bno055.c ****  *
ARM GAS  /tmp/cc9CDFEk.s 			page 12


 599:Src/bno055/bno055.c ****  * Args:
 600:Src/bno055/bno055.c ****  *     > `imu[bno055_t*]`: BNO055 to read the data from
 601:Src/bno055/bno055.c ****  *     > `buf[f32*]`: Buffer to store the read value in
 602:Src/bno055/bno055.c ****  * ----------------------------------------------------------------------
 603:Src/bno055/bno055.c ****  *
 604:Src/bno055/bno055.c ****  * Return:
 605:Src/bno055/bno055.c ****  *     > `error_bno`: `BNO_OK` on success, errorcode else.
 606:Src/bno055/bno055.c ****  * ----------------------------------------------------------------------
 607:Src/bno055/bno055.c ****  */
 608:Src/bno055/bno055.c **** error_bno bno055_mag_y(bno055_t* imu, f32* buf) {
 609:Src/bno055/bno055.c ****     error_bno err;
 610:Src/bno055/bno055.c **** #ifdef BNO_AUTO_PAGE_SET
 611:Src/bno055/bno055.c ****     if ((err = bno055_set_page(imu, BNO_PAGE_0)) != BNO_OK) {
 612:Src/bno055/bno055.c ****         return err;
 613:Src/bno055/bno055.c ****     }
 614:Src/bno055/bno055.c **** #endif  // BNO_AUTO_PAGE_SET
 615:Src/bno055/bno055.c ****     u8 data[2];
 616:Src/bno055/bno055.c ****     if ((err = bno055_read_regs(*imu, BNO_MAG_DATA_Y_LSB, data, 2)) != BNO_OK) {
 617:Src/bno055/bno055.c ****         return err;
 618:Src/bno055/bno055.c ****     }
 619:Src/bno055/bno055.c **** 
 620:Src/bno055/bno055.c ****     *buf = (s16)((data[1] << 8) | data[0]) / BNO_MAG_SCALE;
 621:Src/bno055/bno055.c ****     return BNO_OK;
 622:Src/bno055/bno055.c **** }
 623:Src/bno055/bno055.c **** 
 624:Src/bno055/bno055.c **** /**
 625:Src/bno055/bno055.c ****  * Bosch BNO055 read magnetometer data on Z-axis
 626:Src/bno055/bno055.c ****  * ----------------------------------------------------------------------
 627:Src/bno055/bno055.c ****  *
 628:Src/bno055/bno055.c ****  * Reads the magnetometer data and stores the value in the specified
 629:Src/bno055/bno055.c ****  * buffer. Unit is `[uT]`.
 630:Src/bno055/bno055.c ****  * ----------------------------------------------------------------------
 631:Src/bno055/bno055.c ****  *
 632:Src/bno055/bno055.c ****  * Args:
 633:Src/bno055/bno055.c ****  *     > `imu[bno055_t*]`: BNO055 to read the data from
 634:Src/bno055/bno055.c ****  *     > `buf[f32*]`: Buffer to store the read value in
 635:Src/bno055/bno055.c ****  * ----------------------------------------------------------------------
 636:Src/bno055/bno055.c ****  *
 637:Src/bno055/bno055.c ****  * Return:
 638:Src/bno055/bno055.c ****  *     > `error_bno`: `BNO_OK` on success, errorcode else.
 639:Src/bno055/bno055.c ****  * ----------------------------------------------------------------------
 640:Src/bno055/bno055.c ****  */
 641:Src/bno055/bno055.c **** error_bno bno055_mag_z(bno055_t* imu, f32* buf) {
 642:Src/bno055/bno055.c ****     error_bno err;
 643:Src/bno055/bno055.c **** #ifdef BNO_AUTO_PAGE_SET
 644:Src/bno055/bno055.c ****     if ((err = bno055_set_page(imu, BNO_PAGE_0)) != BNO_OK) {
 645:Src/bno055/bno055.c ****         return err;
 646:Src/bno055/bno055.c ****     }
 647:Src/bno055/bno055.c **** #endif  // BNO_AUTO_PAGE_SET
 648:Src/bno055/bno055.c ****     u8 data[2];
 649:Src/bno055/bno055.c ****     if ((err = bno055_read_regs(*imu, BNO_MAG_DATA_Z_LSB, data, 2)) != BNO_OK) {
 650:Src/bno055/bno055.c ****         return err;
 651:Src/bno055/bno055.c ****     }
 652:Src/bno055/bno055.c **** 
 653:Src/bno055/bno055.c ****     *buf = (s16)((data[1] << 8) | data[0]) / BNO_MAG_SCALE;
 654:Src/bno055/bno055.c ****     return BNO_OK;
 655:Src/bno055/bno055.c **** }
ARM GAS  /tmp/cc9CDFEk.s 			page 13


 656:Src/bno055/bno055.c **** 
 657:Src/bno055/bno055.c **** /**
 658:Src/bno055/bno055.c ****  * Bosch BNO055 read magnetometer data on all axis
 659:Src/bno055/bno055.c ****  * ----------------------------------------------------------------------
 660:Src/bno055/bno055.c ****  *
 661:Src/bno055/bno055.c ****  * Reads the magnetometer data and stores the value in the specified vector
 662:Src/bno055/bno055.c ****  * buffer. Unit is `[uT]`.
 663:Src/bno055/bno055.c ****  * ----------------------------------------------------------------------
 664:Src/bno055/bno055.c ****  *
 665:Src/bno055/bno055.c ****  * Args:
 666:Src/bno055/bno055.c ****  *     > `imu[bno055_t*]`: BNO055 to read the data from
 667:Src/bno055/bno055.c ****  *     > `buf[bno055_vec3_t*]`: Buffer to store the read value in
 668:Src/bno055/bno055.c ****  * ----------------------------------------------------------------------
 669:Src/bno055/bno055.c ****  *
 670:Src/bno055/bno055.c ****  * Return:
 671:Src/bno055/bno055.c ****  *     > `error_bno`: `BNO_OK` on success, errorcode else.
 672:Src/bno055/bno055.c ****  * ----------------------------------------------------------------------
 673:Src/bno055/bno055.c ****  */
 674:Src/bno055/bno055.c **** error_bno bno055_mag(bno055_t* imu, bno055_vec3_t* xyz) {
 675:Src/bno055/bno055.c ****     error_bno err;
 676:Src/bno055/bno055.c **** #ifdef BNO_AUTO_PAGE_SET
 677:Src/bno055/bno055.c ****     if ((err = bno055_set_page(imu, BNO_PAGE_0)) != BNO_OK) {
 678:Src/bno055/bno055.c ****         return err;
 679:Src/bno055/bno055.c ****     }
 680:Src/bno055/bno055.c **** #endif  // BNO_AUTO_PAGE_SET
 681:Src/bno055/bno055.c ****     u8 data[6];
 682:Src/bno055/bno055.c ****     if ((err = bno055_read_regs(*imu, BNO_MAG_DATA_X_LSB, data, 6)) != BNO_OK) {
 683:Src/bno055/bno055.c ****         return err;
 684:Src/bno055/bno055.c ****     }
 685:Src/bno055/bno055.c **** 
 686:Src/bno055/bno055.c ****     xyz->x = (s16)((data[1] << 8) | data[0]) / BNO_MAG_SCALE;
 687:Src/bno055/bno055.c ****     xyz->y = (s16)((data[3] << 8) | data[2]) / BNO_MAG_SCALE;
 688:Src/bno055/bno055.c ****     xyz->z = (s16)((data[5] << 8) | data[4]) / BNO_MAG_SCALE;
 689:Src/bno055/bno055.c **** 
 690:Src/bno055/bno055.c ****     return BNO_OK;
 691:Src/bno055/bno055.c **** };
 692:Src/bno055/bno055.c **** 
 693:Src/bno055/bno055.c **** /**
 694:Src/bno055/bno055.c ****  * Bosch BNO055 read gravity data on X-axis
 695:Src/bno055/bno055.c ****  * ----------------------------------------------------------------------
 696:Src/bno055/bno055.c ****  *
 697:Src/bno055/bno055.c ****  * Reads the gravity data and stores the value in the specified
 698:Src/bno055/bno055.c ****  * buffer. Unit can be specified with `bno055_set_unit(...)`. (Default: m/s^2)
 699:Src/bno055/bno055.c ****  * ----------------------------------------------------------------------
 700:Src/bno055/bno055.c ****  *
 701:Src/bno055/bno055.c ****  * Args:
 702:Src/bno055/bno055.c ****  *     > `imu[bno055_t*]`: BNO055 to read the data from
 703:Src/bno055/bno055.c ****  *     > `buf[f32*]`: Buffer to store the read value in
 704:Src/bno055/bno055.c ****  * ----------------------------------------------------------------------
 705:Src/bno055/bno055.c ****  *
 706:Src/bno055/bno055.c ****  * Return:
 707:Src/bno055/bno055.c ****  *     > `error_bno`: `BNO_OK` on success, errorcode else.
 708:Src/bno055/bno055.c ****  * ----------------------------------------------------------------------
 709:Src/bno055/bno055.c ****  */
 710:Src/bno055/bno055.c **** error_bno bno055_gravity_x(bno055_t* imu, f32* buf) {
 711:Src/bno055/bno055.c ****     error_bno err;
 712:Src/bno055/bno055.c **** #ifdef BNO_AUTO_PAGE_SET
ARM GAS  /tmp/cc9CDFEk.s 			page 14


 713:Src/bno055/bno055.c ****     if ((err = bno055_set_page(imu, BNO_PAGE_0)) != BNO_OK) {
 714:Src/bno055/bno055.c ****         return err;
 715:Src/bno055/bno055.c ****     }
 716:Src/bno055/bno055.c **** #endif  // BNO_AUTO_PAGE_SET
 717:Src/bno055/bno055.c ****     u8 data[2];
 718:Src/bno055/bno055.c ****     if ((err = bno055_read_regs(*imu, BNO_GRV_DATA_X_LSB, data, 2)) != BNO_OK) {
 719:Src/bno055/bno055.c ****         return err;
 720:Src/bno055/bno055.c ****     }
 721:Src/bno055/bno055.c ****     f32 scale = (imu->_acc_unit == BNO_ACC_UNITSEL_M_S2) ? BNO_ACC_SCALE_M_2
 722:Src/bno055/bno055.c ****                                                          : BNO_ACC_SCALE_MG;
 723:Src/bno055/bno055.c ****     *buf = (s16)((data[1] << 8) | data[0]) / scale;
 724:Src/bno055/bno055.c ****     return BNO_OK;
 725:Src/bno055/bno055.c **** }
 726:Src/bno055/bno055.c **** 
 727:Src/bno055/bno055.c **** /**
 728:Src/bno055/bno055.c ****  * Bosch BNO055 read gravity data on Y-axis
 729:Src/bno055/bno055.c ****  * ----------------------------------------------------------------------
 730:Src/bno055/bno055.c ****  *
 731:Src/bno055/bno055.c ****  * Reads the gravity data and stores the value in the specified
 732:Src/bno055/bno055.c ****  * buffer. Unit can be specified with `bno055_set_unit(...)`. (Default: m/s^2)
 733:Src/bno055/bno055.c ****  * ----------------------------------------------------------------------
 734:Src/bno055/bno055.c ****  *
 735:Src/bno055/bno055.c ****  * Args:
 736:Src/bno055/bno055.c ****  *     > `imu[bno055_t*]`: BNO055 to read the data from
 737:Src/bno055/bno055.c ****  *     > `buf[f32*]`: Buffer to store the read value in
 738:Src/bno055/bno055.c ****  * ----------------------------------------------------------------------
 739:Src/bno055/bno055.c ****  *
 740:Src/bno055/bno055.c ****  * Return:
 741:Src/bno055/bno055.c ****  *     > `error_bno`: `BNO_OK` on success, errorcode else.
 742:Src/bno055/bno055.c ****  * ----------------------------------------------------------------------
 743:Src/bno055/bno055.c ****  */
 744:Src/bno055/bno055.c **** error_bno bno055_gravity_y(bno055_t* imu, f32* buf) {
 745:Src/bno055/bno055.c ****     error_bno err;
 746:Src/bno055/bno055.c **** #ifdef BNO_AUTO_PAGE_SET
 747:Src/bno055/bno055.c ****     if ((err = bno055_set_page(imu, BNO_PAGE_0)) != BNO_OK) {
 748:Src/bno055/bno055.c ****         return err;
 749:Src/bno055/bno055.c ****     }
 750:Src/bno055/bno055.c **** #endif  // BNO_AUTO_PAGE_SET
 751:Src/bno055/bno055.c ****     u8 data[2];
 752:Src/bno055/bno055.c ****     if ((err = bno055_read_regs(*imu, BNO_GRV_DATA_Y_LSB, data, 2)) != BNO_OK) {
 753:Src/bno055/bno055.c ****         return err;
 754:Src/bno055/bno055.c ****     }
 755:Src/bno055/bno055.c ****     f32 scale = (imu->_acc_unit == BNO_ACC_UNITSEL_M_S2) ? BNO_ACC_SCALE_M_2
 756:Src/bno055/bno055.c ****                                                          : BNO_ACC_SCALE_MG;
 757:Src/bno055/bno055.c ****     *buf = (s16)((data[1] << 8) | data[0]) / scale;
 758:Src/bno055/bno055.c ****     return BNO_OK;
 759:Src/bno055/bno055.c **** }
 760:Src/bno055/bno055.c **** 
 761:Src/bno055/bno055.c **** /**
 762:Src/bno055/bno055.c ****  * Bosch BNO055 read gravity data on Z-axis
 763:Src/bno055/bno055.c ****  * ----------------------------------------------------------------------
 764:Src/bno055/bno055.c ****  *
 765:Src/bno055/bno055.c ****  * Reads the gravity data and stores the value in the specified
 766:Src/bno055/bno055.c ****  * buffer. Unit can be specified with `bno055_set_unit(...)`. (Default: m/s^2)
 767:Src/bno055/bno055.c ****  * ----------------------------------------------------------------------
 768:Src/bno055/bno055.c ****  *
 769:Src/bno055/bno055.c ****  * Args:
ARM GAS  /tmp/cc9CDFEk.s 			page 15


 770:Src/bno055/bno055.c ****  *     > `imu[bno055_t*]`: BNO055 to read the data from
 771:Src/bno055/bno055.c ****  *     > `buf[f32*]`: Buffer to store the read value in
 772:Src/bno055/bno055.c ****  * ----------------------------------------------------------------------
 773:Src/bno055/bno055.c ****  *
 774:Src/bno055/bno055.c ****  * Return:
 775:Src/bno055/bno055.c ****  *     > `error_bno`: `BNO_OK` on success, errorcode else.
 776:Src/bno055/bno055.c ****  * ----------------------------------------------------------------------
 777:Src/bno055/bno055.c ****  */
 778:Src/bno055/bno055.c **** error_bno bno055_gravity_z(bno055_t* imu, f32* buf) {
 779:Src/bno055/bno055.c ****     error_bno err;
 780:Src/bno055/bno055.c **** #ifdef BNO_AUTO_PAGE_SET
 781:Src/bno055/bno055.c ****     if ((err = bno055_set_page(imu, BNO_PAGE_0)) != BNO_OK) {
 782:Src/bno055/bno055.c ****         return err;
 783:Src/bno055/bno055.c ****     }
 784:Src/bno055/bno055.c **** #endif  // BNO_AUTO_PAGE_SET
 785:Src/bno055/bno055.c ****     u8 data[2];
 786:Src/bno055/bno055.c ****     if ((err = bno055_read_regs(*imu, BNO_GRV_DATA_Z_LSB, data, 2)) != BNO_OK) {
 787:Src/bno055/bno055.c ****         return err;
 788:Src/bno055/bno055.c ****     }
 789:Src/bno055/bno055.c ****     f32 scale = (imu->_acc_unit == BNO_ACC_UNITSEL_M_S2) ? BNO_ACC_SCALE_M_2
 790:Src/bno055/bno055.c ****                                                          : BNO_ACC_SCALE_MG;
 791:Src/bno055/bno055.c ****     *buf = (s16)((data[1] << 8) | data[0]) / scale;
 792:Src/bno055/bno055.c ****     return BNO_OK;
 793:Src/bno055/bno055.c **** }
 794:Src/bno055/bno055.c **** 
 795:Src/bno055/bno055.c **** /**
 796:Src/bno055/bno055.c ****  * Bosch BNO055 read gravity data on all axis
 797:Src/bno055/bno055.c ****  * ----------------------------------------------------------------------
 798:Src/bno055/bno055.c ****  *
 799:Src/bno055/bno055.c ****  * Reads the gravity data and stores the value in the specified
 800:Src/bno055/bno055.c ****  * vector buffer. Unit can be selected with `bno055_set_unit(...)` (default:
 801:Src/bno055/bno055.c ****  * m/s^2).
 802:Src/bno055/bno055.c ****  * ----------------------------------------------------------------------
 803:Src/bno055/bno055.c ****  *
 804:Src/bno055/bno055.c ****  * Args:
 805:Src/bno055/bno055.c ****  *     > `imu[bno055_t*]`: BNO055 to read the data from
 806:Src/bno055/bno055.c ****  *     > `buf[bno055_vec3_t*]`: Buffer to store the read value in
 807:Src/bno055/bno055.c ****  * ----------------------------------------------------------------------
 808:Src/bno055/bno055.c ****  *
 809:Src/bno055/bno055.c ****  * Return:
 810:Src/bno055/bno055.c ****  *     > `error_bno`: `BNO_OK` on success, errorcode else.
 811:Src/bno055/bno055.c ****  * ----------------------------------------------------------------------
 812:Src/bno055/bno055.c ****  */
 813:Src/bno055/bno055.c **** error_bno bno055_gravity(bno055_t* imu, bno055_vec3_t* buf) {
 814:Src/bno055/bno055.c ****     error_bno err;
 815:Src/bno055/bno055.c **** #ifdef BNO_AUTO_PAGE_SET
 816:Src/bno055/bno055.c ****     if ((err = bno055_set_page(imu, BNO_PAGE_0)) != BNO_OK) {
 817:Src/bno055/bno055.c ****         return err;
 818:Src/bno055/bno055.c ****     }
 819:Src/bno055/bno055.c **** #endif  // BNO_AUTO_PAGE_SET
 820:Src/bno055/bno055.c ****     u8 data[6];
 821:Src/bno055/bno055.c ****     if ((err = bno055_read_regs(*imu, BNO_GRV_DATA_X_LSB, data, 6)) != BNO_OK) {
 822:Src/bno055/bno055.c ****         return err;
 823:Src/bno055/bno055.c ****     }
 824:Src/bno055/bno055.c ****     f32 scale = (imu->_acc_unit == BNO_ACC_UNITSEL_M_S2) ? BNO_ACC_SCALE_M_2
 825:Src/bno055/bno055.c ****                                                          : BNO_ACC_SCALE_MG;
 826:Src/bno055/bno055.c ****     buf->x = (s16)((data[1] << 8) | data[0]) / scale;
ARM GAS  /tmp/cc9CDFEk.s 			page 16


 827:Src/bno055/bno055.c ****     buf->y = (s16)((data[3] << 8) | data[2]) / scale;
 828:Src/bno055/bno055.c ****     buf->x = (s16)((data[5] << 8) | data[4]) / scale;
 829:Src/bno055/bno055.c ****     return BNO_OK;
 830:Src/bno055/bno055.c **** }
 831:Src/bno055/bno055.c **** 
 832:Src/bno055/bno055.c **** /**
 833:Src/bno055/bno055.c ****  * Bosch BNO055 read euler yaw data
 834:Src/bno055/bno055.c ****  * ----------------------------------------------------------------------
 835:Src/bno055/bno055.c ****  *
 836:Src/bno055/bno055.c ****  * Reads the yaw data and stores the value in the specified
 837:Src/bno055/bno055.c ****  * buffer. Unit can be specified with `bno055_set_unit(...)`. (Default: deg)
 838:Src/bno055/bno055.c ****  * ----------------------------------------------------------------------
 839:Src/bno055/bno055.c ****  *
 840:Src/bno055/bno055.c ****  * Args:
 841:Src/bno055/bno055.c ****  *     > `imu[bno055_t*]`: BNO055 to read the data from
 842:Src/bno055/bno055.c ****  *     > `buf[f32*]`: Buffer to store the read value in
 843:Src/bno055/bno055.c ****  * ----------------------------------------------------------------------
 844:Src/bno055/bno055.c ****  *
 845:Src/bno055/bno055.c ****  * Return:
 846:Src/bno055/bno055.c ****  *     > `error_bno`: `BNO_OK` on success, errorcode else.
 847:Src/bno055/bno055.c ****  * ----------------------------------------------------------------------
 848:Src/bno055/bno055.c ****  */
 849:Src/bno055/bno055.c **** error_bno bno055_euler_yaw(bno055_t* imu, f32* buf) {
 850:Src/bno055/bno055.c ****     error_bno err;
 851:Src/bno055/bno055.c **** #ifdef BNO_AUTO_PAGE_SET
 852:Src/bno055/bno055.c ****     if ((err = bno055_set_page(imu, BNO_PAGE_0)) != BNO_OK) {
 853:Src/bno055/bno055.c ****         return err;
 854:Src/bno055/bno055.c ****     }
 855:Src/bno055/bno055.c **** #endif  // BNO_AUTO_PAGE_SET
 856:Src/bno055/bno055.c ****     u8 data[2];
 857:Src/bno055/bno055.c ****     if ((err = bno055_read_regs(*imu, BNO_EUL_HEADING_LSB, data, 2)) !=
 858:Src/bno055/bno055.c ****         BNO_OK) {
 859:Src/bno055/bno055.c ****         return err;
 860:Src/bno055/bno055.c ****     }
 861:Src/bno055/bno055.c ****     f32 scale = (imu->_eul_unit == BNO_EUL_UNIT_DEG) ? BNO_EUL_SCALE_DEG
 862:Src/bno055/bno055.c ****                                                      : BNO_EUL_SCALE_RAD;
 863:Src/bno055/bno055.c ****     *buf = (s16)((data[1] << 8) | data[0]) / scale;
 864:Src/bno055/bno055.c ****     return BNO_OK;
 865:Src/bno055/bno055.c **** }
 866:Src/bno055/bno055.c **** 
 867:Src/bno055/bno055.c **** /**
 868:Src/bno055/bno055.c ****  * Bosch BNO055 read euler roll data
 869:Src/bno055/bno055.c ****  * ----------------------------------------------------------------------
 870:Src/bno055/bno055.c ****  *
 871:Src/bno055/bno055.c ****  * Reads the roll data and stores the value in the specified
 872:Src/bno055/bno055.c ****  * buffer. Unit can be specified with `bno055_set_unit(...)`. (Default: deg)
 873:Src/bno055/bno055.c ****  * ----------------------------------------------------------------------
 874:Src/bno055/bno055.c ****  *
 875:Src/bno055/bno055.c ****  * Args:
 876:Src/bno055/bno055.c ****  *     > `imu[bno055_t*]`: BNO055 to read the data from
 877:Src/bno055/bno055.c ****  *     > `buf[f32*]`: Buffer to store the read value in
 878:Src/bno055/bno055.c ****  * ----------------------------------------------------------------------
 879:Src/bno055/bno055.c ****  *
 880:Src/bno055/bno055.c ****  * Return:
 881:Src/bno055/bno055.c ****  *     > `error_bno`: `BNO_OK` on success, errorcode else.
 882:Src/bno055/bno055.c ****  * ----------------------------------------------------------------------
 883:Src/bno055/bno055.c ****  */
ARM GAS  /tmp/cc9CDFEk.s 			page 17


 884:Src/bno055/bno055.c **** error_bno bno055_euler_roll(bno055_t* imu, f32* buf) {
 885:Src/bno055/bno055.c ****     error_bno err;
 886:Src/bno055/bno055.c **** #ifdef BNO_AUTO_PAGE_SET
 887:Src/bno055/bno055.c ****     if ((err = bno055_set_page(imu, BNO_PAGE_0)) != BNO_OK) {
 888:Src/bno055/bno055.c ****         return err;
 889:Src/bno055/bno055.c ****     }
 890:Src/bno055/bno055.c **** #endif  // BNO_AUTO_PAGE_SET
 891:Src/bno055/bno055.c ****     u8 data[2];
 892:Src/bno055/bno055.c ****     if ((err = bno055_read_regs(*imu, BNO_EUL_ROLL_LSB, data, 2)) != BNO_OK) {
 893:Src/bno055/bno055.c ****         return err;
 894:Src/bno055/bno055.c ****     }
 895:Src/bno055/bno055.c ****     f32 scale = (imu->_eul_unit == BNO_EUL_UNIT_DEG) ? BNO_EUL_SCALE_DEG
 896:Src/bno055/bno055.c ****                                                      : BNO_EUL_SCALE_RAD;
 897:Src/bno055/bno055.c ****     *buf = (s16)((data[1] << 8) | data[0]) / scale;
 898:Src/bno055/bno055.c ****     return BNO_OK;
 899:Src/bno055/bno055.c **** }
 900:Src/bno055/bno055.c **** 
 901:Src/bno055/bno055.c **** /**
 902:Src/bno055/bno055.c ****  * Bosch BNO055 read euler pitch data
 903:Src/bno055/bno055.c ****  * ----------------------------------------------------------------------
 904:Src/bno055/bno055.c ****  *
 905:Src/bno055/bno055.c ****  * Reads the pitch data and stores the value in the specified
 906:Src/bno055/bno055.c ****  * buffer. Unit can be specified with `bno055_set_unit(...)`. (Default: deg)
 907:Src/bno055/bno055.c ****  * ----------------------------------------------------------------------
 908:Src/bno055/bno055.c ****  *
 909:Src/bno055/bno055.c ****  * Args:
 910:Src/bno055/bno055.c ****  *     > `imu[bno055_t*]`: BNO055 to read the data from
 911:Src/bno055/bno055.c ****  *     > `buf[f32*]`: Buffer to store the read value in
 912:Src/bno055/bno055.c ****  * ----------------------------------------------------------------------
 913:Src/bno055/bno055.c ****  *
 914:Src/bno055/bno055.c ****  * Return:
 915:Src/bno055/bno055.c ****  *     > `error_bno`: `BNO_OK` on success, errorcode else.
 916:Src/bno055/bno055.c ****  * ----------------------------------------------------------------------
 917:Src/bno055/bno055.c ****  */
 918:Src/bno055/bno055.c **** error_bno bno055_euler_pitch(bno055_t* imu, f32* buf) {
 919:Src/bno055/bno055.c ****     error_bno err;
 920:Src/bno055/bno055.c **** #ifdef BNO_AUTO_PAGE_SET
 921:Src/bno055/bno055.c ****     if ((err = bno055_set_page(imu, BNO_PAGE_0)) != BNO_OK) {
 922:Src/bno055/bno055.c ****         return err;
 923:Src/bno055/bno055.c ****     }
 924:Src/bno055/bno055.c **** #endif  // BNO_AUTO_PAGE_SET
 925:Src/bno055/bno055.c ****     u8 data[2];
 926:Src/bno055/bno055.c ****     if ((err = bno055_read_regs(*imu, BNO_EUL_PITCH_LSB, data, 2)) != BNO_OK) {
 927:Src/bno055/bno055.c ****         return err;
 928:Src/bno055/bno055.c ****     }
 929:Src/bno055/bno055.c ****     f32 scale = (imu->_eul_unit == BNO_EUL_UNIT_DEG) ? BNO_EUL_SCALE_DEG
 930:Src/bno055/bno055.c ****                                                      : BNO_EUL_SCALE_RAD;
 931:Src/bno055/bno055.c ****     *buf = (s16)((data[1] << 8) | data[0]) / scale;
 932:Src/bno055/bno055.c ****     return BNO_OK;
 933:Src/bno055/bno055.c **** }
 934:Src/bno055/bno055.c **** 
 935:Src/bno055/bno055.c **** /**
 936:Src/bno055/bno055.c ****  * Bosch BNO055 read euler data on all axis
 937:Src/bno055/bno055.c ****  * ----------------------------------------------------------------------
 938:Src/bno055/bno055.c ****  *
 939:Src/bno055/bno055.c ****  * Reads the euler data and stores the value in the specified
 940:Src/bno055/bno055.c ****  * vector buffer. Unit can be selected with `bno055_set_unit(...)` (default:
ARM GAS  /tmp/cc9CDFEk.s 			page 18


 941:Src/bno055/bno055.c ****  * deg).
 942:Src/bno055/bno055.c ****  * ----------------------------------------------------------------------
 943:Src/bno055/bno055.c ****  *
 944:Src/bno055/bno055.c ****  * Args:
 945:Src/bno055/bno055.c ****  *     > `imu[bno055_t*]`: BNO055 to read the data from
 946:Src/bno055/bno055.c ****  *     > `buf[bno055_euler_t*]`: Buffer to store the read value in
 947:Src/bno055/bno055.c ****  * ----------------------------------------------------------------------
 948:Src/bno055/bno055.c ****  *
 949:Src/bno055/bno055.c ****  * Return:
 950:Src/bno055/bno055.c ****  *     > `error_bno`: `BNO_OK` on success, errorcode else.
 951:Src/bno055/bno055.c ****  * ----------------------------------------------------------------------
 952:Src/bno055/bno055.c ****  */
 953:Src/bno055/bno055.c **** error_bno bno055_euler(bno055_t* imu, bno055_euler_t* buf) {
 954:Src/bno055/bno055.c ****     error_bno err;
 955:Src/bno055/bno055.c **** #ifdef BNO_AUTO_PAGE_SET
 956:Src/bno055/bno055.c ****     if ((err = bno055_set_page(imu, BNO_PAGE_0)) != BNO_OK) {
 957:Src/bno055/bno055.c ****         return err;
 958:Src/bno055/bno055.c ****     }
 959:Src/bno055/bno055.c **** #endif  // BNO_AUTO_PAGE_SET
 960:Src/bno055/bno055.c ****     u8 data[6];
 961:Src/bno055/bno055.c ****     if ((err = bno055_read_regs(*imu, BNO_EUL_HEADING_LSB, data, 6)) !=
 962:Src/bno055/bno055.c ****         BNO_OK) {
 963:Src/bno055/bno055.c ****         return err;
 964:Src/bno055/bno055.c ****     }
 965:Src/bno055/bno055.c ****     f32 scale = (imu->_eul_unit == BNO_EUL_UNIT_DEG) ? BNO_EUL_SCALE_DEG
 966:Src/bno055/bno055.c ****                                                      : BNO_EUL_SCALE_RAD;
 967:Src/bno055/bno055.c ****     buf->yaw = (s16)((data[1] << 8) | data[0]) / scale;
 968:Src/bno055/bno055.c ****     buf->roll = (s16)((data[3] << 8) | data[2]) / scale;
 969:Src/bno055/bno055.c ****     buf->pitch = (s16)((data[5] << 8) | data[4]) / scale;
 970:Src/bno055/bno055.c ****     return BNO_OK;
 971:Src/bno055/bno055.c **** }
 972:Src/bno055/bno055.c **** 
 973:Src/bno055/bno055.c **** /**
 974:Src/bno055/bno055.c ****  * Bosch BNO055 read quaternion W-axis data
 975:Src/bno055/bno055.c ****  * ----------------------------------------------------------------------
 976:Src/bno055/bno055.c ****  *
 977:Src/bno055/bno055.c ****  * Reads the quaternion data and stores the value in the specified
 978:Src/bno055/bno055.c ****  * buffer.
 979:Src/bno055/bno055.c ****  * ----------------------------------------------------------------------
 980:Src/bno055/bno055.c ****  *
 981:Src/bno055/bno055.c ****  * Args:
 982:Src/bno055/bno055.c ****  *     > `imu[bno055_t*]`: BNO055 to read the data from
 983:Src/bno055/bno055.c ****  *     > `buf[f32*]`: Buffer to store the read value in
 984:Src/bno055/bno055.c ****  * ----------------------------------------------------------------------
 985:Src/bno055/bno055.c ****  *
 986:Src/bno055/bno055.c ****  * Return:
 987:Src/bno055/bno055.c ****  *     > `error_bno`: `BNO_OK` on success, errorcode else.
 988:Src/bno055/bno055.c ****  * ----------------------------------------------------------------------
 989:Src/bno055/bno055.c ****  */
 990:Src/bno055/bno055.c **** error_bno bno055_quaternion_w(bno055_t* imu, f32* buf) {
  31              		.loc 1 990 56 view -0
  32              		.cfi_startproc
  33              		@ args = 0, pretend = 0, frame = 8
  34              		@ frame_needed = 0, uses_anonymous_args = 0
 991:Src/bno055/bno055.c ****     error_bno err;
  35              		.loc 1 991 5 view .LVU1
 992:Src/bno055/bno055.c **** #ifdef BNO_AUTO_PAGE_SET
ARM GAS  /tmp/cc9CDFEk.s 			page 19


 993:Src/bno055/bno055.c ****     if ((err = bno055_set_page(imu, BNO_PAGE_0)) != BNO_OK) {
 994:Src/bno055/bno055.c ****         return err;
 995:Src/bno055/bno055.c ****     }
 996:Src/bno055/bno055.c **** #endif  // BNO_AUTO_PAGE_SET
 997:Src/bno055/bno055.c ****     u8 data[2];
  36              		.loc 1 997 5 view .LVU2
 998:Src/bno055/bno055.c ****     if ((err = bno055_read_regs(*imu, BNO_QUA_DATA_W_LSB, data, 2)) != BNO_OK) {
  37              		.loc 1 998 5 view .LVU3
 990:Src/bno055/bno055.c ****     error_bno err;
  38              		.loc 1 990 56 is_stmt 0 view .LVU4
  39 0000 F0B5     		push	{r4, r5, r6, r7, lr}
  40              	.LCFI0:
  41              		.cfi_def_cfa_offset 20
  42              		.cfi_offset 4, -20
  43              		.cfi_offset 5, -16
  44              		.cfi_offset 6, -12
  45              		.cfi_offset 7, -8
  46              		.cfi_offset 14, -4
  47 0002 0568     		ldr	r5, [r0]
  48              	.LVL1:
  49              	.LBB16:
  50              	.LBB17:
 999:Src/bno055/bno055.c ****         return err;
1000:Src/bno055/bno055.c ****     }
1001:Src/bno055/bno055.c ****     *buf = (s16)((data[1] << 8) | data[0]) / (f32)BNO_QUA_SCALE;
1002:Src/bno055/bno055.c ****     return BNO_OK;
1003:Src/bno055/bno055.c **** }
1004:Src/bno055/bno055.c **** 
1005:Src/bno055/bno055.c **** /**
1006:Src/bno055/bno055.c ****  * Bosch BNO055 read quaternion X-axis data
1007:Src/bno055/bno055.c ****  * ----------------------------------------------------------------------
1008:Src/bno055/bno055.c ****  *
1009:Src/bno055/bno055.c ****  * Reads the quaternion data and stores the value in the specified
1010:Src/bno055/bno055.c ****  * buffer.
1011:Src/bno055/bno055.c ****  * ----------------------------------------------------------------------
1012:Src/bno055/bno055.c ****  *
1013:Src/bno055/bno055.c ****  * Args:
1014:Src/bno055/bno055.c ****  *     > `imu[bno055_t*]`: BNO055 to read the data from
1015:Src/bno055/bno055.c ****  *     > `buf[f32*]`: Buffer to store the read value in
1016:Src/bno055/bno055.c ****  * ----------------------------------------------------------------------
1017:Src/bno055/bno055.c ****  *
1018:Src/bno055/bno055.c ****  * Return:
1019:Src/bno055/bno055.c ****  *     > `error_bno`: `BNO_OK` on success, errorcode else.
1020:Src/bno055/bno055.c ****  * ----------------------------------------------------------------------
1021:Src/bno055/bno055.c ****  */
1022:Src/bno055/bno055.c **** error_bno bno055_quaternion_x(bno055_t* imu, f32* buf) {
1023:Src/bno055/bno055.c ****     error_bno err;
1024:Src/bno055/bno055.c **** #ifdef BNO_AUTO_PAGE_SET
1025:Src/bno055/bno055.c ****     if ((err = bno055_set_page(imu, BNO_PAGE_0)) != BNO_OK) {
1026:Src/bno055/bno055.c ****         return err;
1027:Src/bno055/bno055.c ****     }
1028:Src/bno055/bno055.c **** #endif  // BNO_AUTO_PAGE_SET
1029:Src/bno055/bno055.c ****     u8 data[2];
1030:Src/bno055/bno055.c ****     if ((err = bno055_read_regs(*imu, BNO_QUA_DATA_X_LSB, data, 2)) != BNO_OK) {
1031:Src/bno055/bno055.c ****         return err;
1032:Src/bno055/bno055.c ****     }
1033:Src/bno055/bno055.c ****     *buf = (s16)((data[1] << 8) | data[0]) / (f32)BNO_QUA_SCALE;
ARM GAS  /tmp/cc9CDFEk.s 			page 20


1034:Src/bno055/bno055.c ****     return BNO_OK;
1035:Src/bno055/bno055.c **** }
1036:Src/bno055/bno055.c **** 
1037:Src/bno055/bno055.c **** /**
1038:Src/bno055/bno055.c ****  * Bosch BNO055 read quaternion Y-axis data
1039:Src/bno055/bno055.c ****  * ----------------------------------------------------------------------
1040:Src/bno055/bno055.c ****  *
1041:Src/bno055/bno055.c ****  * Reads the quaternion data and stores the value in the specified
1042:Src/bno055/bno055.c ****  * buffer.
1043:Src/bno055/bno055.c ****  * ----------------------------------------------------------------------
1044:Src/bno055/bno055.c ****  *
1045:Src/bno055/bno055.c ****  * Args:
1046:Src/bno055/bno055.c ****  *     > `imu[bno055_t*]`: BNO055 to read the data from
1047:Src/bno055/bno055.c ****  *     > `buf[f32*]`: Buffer to store the read value in
1048:Src/bno055/bno055.c ****  * ----------------------------------------------------------------------
1049:Src/bno055/bno055.c ****  *
1050:Src/bno055/bno055.c ****  * Return:
1051:Src/bno055/bno055.c ****  *     > `error_bno`: `BNO_OK` on success, errorcode else.
1052:Src/bno055/bno055.c ****  * ----------------------------------------------------------------------
1053:Src/bno055/bno055.c ****  */
1054:Src/bno055/bno055.c **** error_bno bno055_quaternion_y(bno055_t* imu, f32* buf) {
1055:Src/bno055/bno055.c ****     error_bno err;
1056:Src/bno055/bno055.c **** #ifdef BNO_AUTO_PAGE_SET
1057:Src/bno055/bno055.c ****     if ((err = bno055_set_page(imu, BNO_PAGE_0)) != BNO_OK) {
1058:Src/bno055/bno055.c ****         return err;
1059:Src/bno055/bno055.c ****     }
1060:Src/bno055/bno055.c **** #endif  // BNO_AUTO_PAGE_SET
1061:Src/bno055/bno055.c ****     u8 data[2];
1062:Src/bno055/bno055.c ****     if ((err = bno055_read_regs(*imu, BNO_QUA_DATA_Y_LSB, data, 2)) != BNO_OK) {
1063:Src/bno055/bno055.c ****         return err;
1064:Src/bno055/bno055.c ****     }
1065:Src/bno055/bno055.c ****     *buf = (s16)((data[1] << 8) | data[0]) / (f32)BNO_QUA_SCALE;
1066:Src/bno055/bno055.c ****     return BNO_OK;
1067:Src/bno055/bno055.c **** }
1068:Src/bno055/bno055.c **** 
1069:Src/bno055/bno055.c **** /**
1070:Src/bno055/bno055.c ****  * Bosch BNO055 read quaternion Z-axis data
1071:Src/bno055/bno055.c ****  * ----------------------------------------------------------------------
1072:Src/bno055/bno055.c ****  *
1073:Src/bno055/bno055.c ****  * Reads the quaternion data and stores the value in the specified
1074:Src/bno055/bno055.c ****  * buffer.
1075:Src/bno055/bno055.c ****  * ----------------------------------------------------------------------
1076:Src/bno055/bno055.c ****  *
1077:Src/bno055/bno055.c ****  * Args:
1078:Src/bno055/bno055.c ****  *     > `imu[bno055_t*]`: BNO055 to read the data from
1079:Src/bno055/bno055.c ****  *     > `buf[f32*]`: Buffer to store the read value in
1080:Src/bno055/bno055.c ****  * ----------------------------------------------------------------------
1081:Src/bno055/bno055.c ****  *
1082:Src/bno055/bno055.c ****  * Return:
1083:Src/bno055/bno055.c ****  *     > `error_bno`: `BNO_OK` on success, errorcode else.
1084:Src/bno055/bno055.c ****  * ----------------------------------------------------------------------
1085:Src/bno055/bno055.c ****  */
1086:Src/bno055/bno055.c **** error_bno bno055_quaternion_z(bno055_t* imu, f32* buf) {
1087:Src/bno055/bno055.c ****     error_bno err;
1088:Src/bno055/bno055.c **** #ifdef BNO_AUTO_PAGE_SET
1089:Src/bno055/bno055.c ****     if ((err = bno055_set_page(imu, BNO_PAGE_0)) != BNO_OK) {
1090:Src/bno055/bno055.c ****         return err;
ARM GAS  /tmp/cc9CDFEk.s 			page 21


1091:Src/bno055/bno055.c ****     }
1092:Src/bno055/bno055.c **** #endif  // BNO_AUTO_PAGE_SET
1093:Src/bno055/bno055.c ****     u8 data[2];
1094:Src/bno055/bno055.c ****     if ((err = bno055_read_regs(*imu, BNO_QUA_DATA_Z_LSB, data, 2)) != BNO_OK) {
1095:Src/bno055/bno055.c ****         return err;
1096:Src/bno055/bno055.c ****     }
1097:Src/bno055/bno055.c ****     *buf = (s16)((data[1] << 8) | data[0]) / (f32)BNO_QUA_SCALE;
1098:Src/bno055/bno055.c ****     return BNO_OK;
1099:Src/bno055/bno055.c **** }
1100:Src/bno055/bno055.c **** 
1101:Src/bno055/bno055.c **** /**
1102:Src/bno055/bno055.c ****  * Bosch BNO055 read quaternion data on all axis
1103:Src/bno055/bno055.c ****  * ----------------------------------------------------------------------
1104:Src/bno055/bno055.c ****  *
1105:Src/bno055/bno055.c ****  * Reads the euler data and stores the value in the specified
1106:Src/bno055/bno055.c ****  * vector buffer. Unit can be selected with `bno055_set_unit(...)` (default:
1107:Src/bno055/bno055.c ****  * deg).
1108:Src/bno055/bno055.c ****  * ----------------------------------------------------------------------
1109:Src/bno055/bno055.c ****  *
1110:Src/bno055/bno055.c ****  * Args:
1111:Src/bno055/bno055.c ****  *     > `imu[bno055_t*]`: BNO055 to read the data from
1112:Src/bno055/bno055.c ****  *     > `buf[bno055_euler_t*]`: Buffer to store the read value in
1113:Src/bno055/bno055.c ****  * ----------------------------------------------------------------------
1114:Src/bno055/bno055.c ****  *
1115:Src/bno055/bno055.c ****  * Return:
1116:Src/bno055/bno055.c ****  *     > `error_bno`: `BNO_OK` on success, errorcode else.
1117:Src/bno055/bno055.c ****  * ----------------------------------------------------------------------
1118:Src/bno055/bno055.c ****  */
1119:Src/bno055/bno055.c **** error_bno bno055_quaternion(bno055_t* imu, bno055_vec4_t* buf) {
1120:Src/bno055/bno055.c ****     error_bno err;
1121:Src/bno055/bno055.c **** #ifdef BNO_AUTO_PAGE_SET
1122:Src/bno055/bno055.c ****     if ((err = bno055_set_page(imu, BNO_PAGE_0)) != BNO_OK) {
1123:Src/bno055/bno055.c ****         return err;
1124:Src/bno055/bno055.c ****     }
1125:Src/bno055/bno055.c **** #endif  // BNO_AUTO_PAGE_SET
1126:Src/bno055/bno055.c ****     u8 data[8];
1127:Src/bno055/bno055.c ****     if ((err = bno055_read_regs(*imu, BNO_QUA_DATA_W_LSB, data, 8)) != BNO_OK) {
1128:Src/bno055/bno055.c ****         return err;
1129:Src/bno055/bno055.c ****     }
1130:Src/bno055/bno055.c ****     buf->w = (s16)((data[1] << 8) | data[0]) / (f32)BNO_QUA_SCALE;
1131:Src/bno055/bno055.c ****     buf->x = (s16)((data[3] << 8) | data[2]) / (f32)BNO_QUA_SCALE;
1132:Src/bno055/bno055.c ****     buf->y = (s16)((data[5] << 8) | data[4]) / (f32)BNO_QUA_SCALE;
1133:Src/bno055/bno055.c ****     buf->z = (s16)((data[7] << 8) | data[6]) / (f32)BNO_QUA_SCALE;
1134:Src/bno055/bno055.c ****     return BNO_OK;
1135:Src/bno055/bno055.c **** }
1136:Src/bno055/bno055.c **** 
1137:Src/bno055/bno055.c **** error_bno bno055_set_opmode(bno055_t* imu, const bno055_opmode_t opmode) {
1138:Src/bno055/bno055.c ****     error_bno err;
1139:Src/bno055/bno055.c **** #ifdef BNO_AUTO_PAGE_SET
1140:Src/bno055/bno055.c ****     if ((err = bno055_set_page(imu, BNO_PAGE_0)) != BNO_OK) {
1141:Src/bno055/bno055.c ****         return err;
1142:Src/bno055/bno055.c ****     }
1143:Src/bno055/bno055.c **** #endif  // BNO_AUTO_PAGE_SET
1144:Src/bno055/bno055.c ****     if ((err = bno055_write_regs(*imu, BNO_OPR_MODE, (u8*)&opmode, 1)) !=
1145:Src/bno055/bno055.c ****         BNO_OK) {
1146:Src/bno055/bno055.c ****         return err;
1147:Src/bno055/bno055.c ****     }
ARM GAS  /tmp/cc9CDFEk.s 			page 22


1148:Src/bno055/bno055.c ****     HAL_Delay(BNO_ANY_TIME_DELAY + 5);
1149:Src/bno055/bno055.c ****     return BNO_OK;
1150:Src/bno055/bno055.c **** }
1151:Src/bno055/bno055.c **** 
1152:Src/bno055/bno055.c **** error_bno bno055_set_unit(bno055_t* bno, const bno055_temp_unitsel_t t_unit,
1153:Src/bno055/bno055.c ****                           const bno055_gyr_unitsel_t g_unit,
1154:Src/bno055/bno055.c ****                           const bno055_acc_unitsel_t a_unit,
1155:Src/bno055/bno055.c ****                           const bno055_eul_unitsel_t e_unit) {
1156:Src/bno055/bno055.c ****     error_bno err;
1157:Src/bno055/bno055.c ****     if ((err = bno055_set_opmode(bno, BNO_MODE_CONFIG)) != BNO_OK) {
1158:Src/bno055/bno055.c ****         return err;
1159:Src/bno055/bno055.c ****     }
1160:Src/bno055/bno055.c ****     if ((err = bno055_set_page(bno, BNO_PAGE_0)) != BNO_OK) {
1161:Src/bno055/bno055.c ****         return err;
1162:Src/bno055/bno055.c ****     }
1163:Src/bno055/bno055.c ****     uint8_t data = t_unit | g_unit | a_unit | e_unit;
1164:Src/bno055/bno055.c ****     if ((err = bno055_write_regs(*bno, BNO_UNIT_SEL, &data, 1)) != BNO_OK) {
1165:Src/bno055/bno055.c ****         return err;
1166:Src/bno055/bno055.c ****     }
1167:Src/bno055/bno055.c ****     bno->_gyr_unit = g_unit;
1168:Src/bno055/bno055.c ****     bno->_acc_unit = a_unit;
1169:Src/bno055/bno055.c ****     bno->_eul_unit = e_unit;
1170:Src/bno055/bno055.c ****     bno->_temp_unit = t_unit;
1171:Src/bno055/bno055.c **** 
1172:Src/bno055/bno055.c ****     if ((err = bno055_set_opmode(bno, bno->mode)) != BNO_OK) {
1173:Src/bno055/bno055.c ****         return err;
1174:Src/bno055/bno055.c ****     }
1175:Src/bno055/bno055.c ****     return BNO_OK;
1176:Src/bno055/bno055.c **** }
1177:Src/bno055/bno055.c **** 
1178:Src/bno055/bno055.c **** error_bno bno055_set_pwr_mode(bno055_t* imu, bno055_pwr_t pwr_mode) {
1179:Src/bno055/bno055.c ****     if (imu == NULL) {
1180:Src/bno055/bno055.c ****         return BNO_ERR_NULL_PTR;
1181:Src/bno055/bno055.c ****     }
1182:Src/bno055/bno055.c ****     error_bno err;
1183:Src/bno055/bno055.c ****     if ((err = bno055_set_opmode(imu, BNO_MODE_CONFIG)) != BNO_OK) {
1184:Src/bno055/bno055.c ****         return err;
1185:Src/bno055/bno055.c ****     }
1186:Src/bno055/bno055.c ****     if ((err = bno055_set_page(imu, BNO_PAGE_0)) != BNO_OK) {
1187:Src/bno055/bno055.c ****         return err;
1188:Src/bno055/bno055.c ****     }
1189:Src/bno055/bno055.c ****     if ((err = bno055_write_regs(*imu, BNO_PWR_MODE, (u8*)&pwr_mode, 1)) !=
1190:Src/bno055/bno055.c ****         BNO_OK) {
1191:Src/bno055/bno055.c ****         return err;
1192:Src/bno055/bno055.c ****     }
1193:Src/bno055/bno055.c ****     imu->_pwr_mode = pwr_mode;
1194:Src/bno055/bno055.c ****     if ((err = bno055_set_page(imu, BNO_PAGE_0)) != BNO_OK) {
1195:Src/bno055/bno055.c ****         return err;
1196:Src/bno055/bno055.c ****     }
1197:Src/bno055/bno055.c ****     if ((err = bno055_set_opmode(imu, imu->mode)) != BNO_OK) {
1198:Src/bno055/bno055.c ****         return err;
1199:Src/bno055/bno055.c ****     }
1200:Src/bno055/bno055.c ****     HAL_Delay(2);
1201:Src/bno055/bno055.c ****     return BNO_OK;
1202:Src/bno055/bno055.c **** }
1203:Src/bno055/bno055.c **** 
1204:Src/bno055/bno055.c **** error_bno bno055_reset(bno055_t* imu) {
ARM GAS  /tmp/cc9CDFEk.s 			page 23


1205:Src/bno055/bno055.c ****     u8 data = 0x20U;
1206:Src/bno055/bno055.c ****     if (bno055_write_regs(*imu, BNO_SYS_TRIGGER, &data, 1) != BNO_OK) {
1207:Src/bno055/bno055.c ****         return BNO_ERR_I2C;
1208:Src/bno055/bno055.c ****     }
1209:Src/bno055/bno055.c ****     return BNO_OK;
1210:Src/bno055/bno055.c **** }
1211:Src/bno055/bno055.c **** 
1212:Src/bno055/bno055.c **** error_bno bno055_on(bno055_t* imu) {
1213:Src/bno055/bno055.c ****     u8 data = 0x00U;
1214:Src/bno055/bno055.c ****     if (bno055_write_regs(*imu, BNO_SYS_TRIGGER, &data, 1) != BNO_OK) {
1215:Src/bno055/bno055.c ****         return BNO_ERR_I2C;
1216:Src/bno055/bno055.c ****     }
1217:Src/bno055/bno055.c ****     return BNO_OK;
1218:Src/bno055/bno055.c **** }
1219:Src/bno055/bno055.c **** 
1220:Src/bno055/bno055.c **** error_bno bno055_read_regs(bno055_t imu, u8 addr, uint8_t* buf,
1221:Src/bno055/bno055.c ****                            uint32_t buf_size) {
1222:Src/bno055/bno055.c ****     HAL_StatusTypeDef err;
1223:Src/bno055/bno055.c ****     // err = HAL_I2C_Mem_Read(imu.i2c, imu.addr, addr, I2C_MEMADD_SIZE_8BIT,
1224:Src/bno055/bno055.c ****     // buf,
1225:Src/bno055/bno055.c ****     //                        buf_size, HAL_MAX_DELAY);
1226:Src/bno055/bno055.c ****     err = HAL_I2C_Master_Transmit(imu.i2c, imu.addr, &addr, 1, HAL_MAX_DELAY);
  51              		.loc 1 1226 11 view .LVU5
  52 0004 8679     		ldrb	r6, [r0, #6]	@ zero_extendqisi2
  53              	.LBE17:
  54              	.LBE16:
 990:Src/bno055/bno055.c ****     error_bno err;
  55              		.loc 1 990 56 view .LVU6
  56 0006 85B0     		sub	sp, sp, #20
  57              	.LCFI1:
  58              		.cfi_def_cfa_offset 40
  59 0008 2023     		movs	r3, #32
  60              	.LBB21:
  61              	.LBB18:
  62              		.loc 1 1226 11 view .LVU7
  63 000a 4FF0FF37 		mov	r7, #-1
  64              	.LBE18:
  65              	.LBE21:
 990:Src/bno055/bno055.c ****     error_bno err;
  66              		.loc 1 990 56 view .LVU8
  67 000e 0C46     		mov	r4, r1
  68 0010 8DF80B30 		strb	r3, [sp, #11]
  69              	.LVL2:
  70              	.LBB22:
  71              	.LBI16:
1220:Src/bno055/bno055.c ****                            uint32_t buf_size) {
  72              		.loc 1 1220 11 is_stmt 1 view .LVU9
  73              	.LBB19:
1222:Src/bno055/bno055.c ****     // err = HAL_I2C_Mem_Read(imu.i2c, imu.addr, addr, I2C_MEMADD_SIZE_8BIT,
  74              		.loc 1 1222 5 view .LVU10
  75              		.loc 1 1226 5 view .LVU11
  76              		.loc 1 1226 11 is_stmt 0 view .LVU12
  77 0014 0097     		str	r7, [sp]
  78              	.LVL3:
  79              		.loc 1 1226 11 view .LVU13
  80 0016 0123     		movs	r3, #1
  81              	.LVL4:
ARM GAS  /tmp/cc9CDFEk.s 			page 24


  82              		.loc 1 1226 11 view .LVU14
  83 0018 0DF10B02 		add	r2, sp, #11
  84              	.LVL5:
  85              		.loc 1 1226 11 view .LVU15
  86 001c 3146     		mov	r1, r6
  87              	.LVL6:
  88              		.loc 1 1226 11 view .LVU16
  89 001e 2846     		mov	r0, r5
  90              	.LVL7:
  91              		.loc 1 1226 11 view .LVU17
  92 0020 FFF7FEFF 		bl	HAL_I2C_Master_Transmit
  93              	.LVL8:
1227:Src/bno055/bno055.c ****     if (err != HAL_OK) {
  94              		.loc 1 1227 5 is_stmt 1 view .LVU18
  95              		.loc 1 1227 8 is_stmt 0 view .LVU19
  96 0024 10B1     		cbz	r0, .L2
  97              	.L4:
  98              	.LVL9:
1228:Src/bno055/bno055.c ****         return BNO_ERR_I2C;
  99              		.loc 1 1228 16 view .LVU20
 100 0026 0120     		movs	r0, #1
 101              	.LBE19:
 102              	.LBE22:
1003:Src/bno055/bno055.c **** 
 103              		.loc 1 1003 1 view .LVU21
 104 0028 05B0     		add	sp, sp, #20
 105              	.LCFI2:
 106              		.cfi_remember_state
 107              		.cfi_def_cfa_offset 20
 108              		@ sp needed
 109 002a F0BD     		pop	{r4, r5, r6, r7, pc}
 110              	.LVL10:
 111              	.L2:
 112              	.LCFI3:
 113              		.cfi_restore_state
 114              	.LBB23:
 115              	.LBB20:
1229:Src/bno055/bno055.c ****     }
1230:Src/bno055/bno055.c ****     err =
 116              		.loc 1 1230 5 is_stmt 1 view .LVU22
1231:Src/bno055/bno055.c ****         HAL_I2C_Master_Receive(imu.i2c, imu.addr, buf, buf_size, HAL_MAX_DELAY);
 117              		.loc 1 1231 9 is_stmt 0 view .LVU23
 118 002c 0097     		str	r7, [sp]
 119 002e 0223     		movs	r3, #2
 120 0030 03AA     		add	r2, sp, #12
 121              	.LVL11:
 122              		.loc 1 1231 9 view .LVU24
 123 0032 3146     		mov	r1, r6
 124 0034 2846     		mov	r0, r5
 125              	.LVL12:
 126              		.loc 1 1231 9 view .LVU25
 127 0036 FFF7FEFF 		bl	HAL_I2C_Master_Receive
 128              	.LVL13:
1232:Src/bno055/bno055.c ****     if (err != HAL_OK) {
 129              		.loc 1 1232 5 is_stmt 1 view .LVU26
 130              		.loc 1 1232 8 is_stmt 0 view .LVU27
 131 003a 0028     		cmp	r0, #0
ARM GAS  /tmp/cc9CDFEk.s 			page 25


 132 003c F3D1     		bne	.L4
 133              	.LVL14:
 134              		.loc 1 1232 8 view .LVU28
 135              	.LBE20:
 136              	.LBE23:
1001:Src/bno055/bno055.c ****     return BNO_OK;
 137              		.loc 1 1001 5 is_stmt 1 view .LVU29
1001:Src/bno055/bno055.c ****     return BNO_OK;
 138              		.loc 1 1001 44 is_stmt 0 view .LVU30
 139 003e BDF90C30 		ldrsh	r3, [sp, #12]
 140 0042 07EE903A 		vmov	s15, r3	@ int
 141 0046 FAEEC97A 		vcvt.f32.s32	s15, s15, #14
1001:Src/bno055/bno055.c ****     return BNO_OK;
 142              		.loc 1 1001 10 view .LVU31
 143 004a C4ED007A 		vstr.32	s15, [r4]
1002:Src/bno055/bno055.c **** }
 144              		.loc 1 1002 5 is_stmt 1 view .LVU32
1003:Src/bno055/bno055.c **** 
 145              		.loc 1 1003 1 is_stmt 0 view .LVU33
 146 004e 05B0     		add	sp, sp, #20
 147              	.LCFI4:
 148              		.cfi_def_cfa_offset 20
 149              		@ sp needed
 150 0050 F0BD     		pop	{r4, r5, r6, r7, pc}
1003:Src/bno055/bno055.c **** 
 151              		.loc 1 1003 1 view .LVU34
 152              		.cfi_endproc
 153              	.LFE159:
 155 0052 00BF     		.section	.text.bno055_quaternion_x,"ax",%progbits
 156              		.align	1
 157              		.p2align 2,,3
 158              		.global	bno055_quaternion_x
 159              		.syntax unified
 160              		.thumb
 161              		.thumb_func
 162              		.fpu fpv4-sp-d16
 164              	bno055_quaternion_x:
 165              	.LVL15:
 166              	.LFB160:
1022:Src/bno055/bno055.c ****     error_bno err;
 167              		.loc 1 1022 56 is_stmt 1 view -0
 168              		.cfi_startproc
 169              		@ args = 0, pretend = 0, frame = 8
 170              		@ frame_needed = 0, uses_anonymous_args = 0
1023:Src/bno055/bno055.c **** #ifdef BNO_AUTO_PAGE_SET
 171              		.loc 1 1023 5 view .LVU36
1029:Src/bno055/bno055.c ****     if ((err = bno055_read_regs(*imu, BNO_QUA_DATA_X_LSB, data, 2)) != BNO_OK) {
 172              		.loc 1 1029 5 view .LVU37
1030:Src/bno055/bno055.c ****         return err;
 173              		.loc 1 1030 5 view .LVU38
1022:Src/bno055/bno055.c ****     error_bno err;
 174              		.loc 1 1022 56 is_stmt 0 view .LVU39
 175 0000 F0B5     		push	{r4, r5, r6, r7, lr}
 176              	.LCFI5:
 177              		.cfi_def_cfa_offset 20
 178              		.cfi_offset 4, -20
 179              		.cfi_offset 5, -16
ARM GAS  /tmp/cc9CDFEk.s 			page 26


 180              		.cfi_offset 6, -12
 181              		.cfi_offset 7, -8
 182              		.cfi_offset 14, -4
 183 0002 0568     		ldr	r5, [r0]
 184              	.LVL16:
 185              	.LBB26:
 186              	.LBB27:
1226:Src/bno055/bno055.c ****     if (err != HAL_OK) {
 187              		.loc 1 1226 11 view .LVU40
 188 0004 8679     		ldrb	r6, [r0, #6]	@ zero_extendqisi2
 189              	.LBE27:
 190              	.LBE26:
1022:Src/bno055/bno055.c ****     error_bno err;
 191              		.loc 1 1022 56 view .LVU41
 192 0006 85B0     		sub	sp, sp, #20
 193              	.LCFI6:
 194              		.cfi_def_cfa_offset 40
 195 0008 2223     		movs	r3, #34
 196              	.LBB31:
 197              	.LBB28:
1226:Src/bno055/bno055.c ****     if (err != HAL_OK) {
 198              		.loc 1 1226 11 view .LVU42
 199 000a 4FF0FF37 		mov	r7, #-1
 200              	.LBE28:
 201              	.LBE31:
1022:Src/bno055/bno055.c ****     error_bno err;
 202              		.loc 1 1022 56 view .LVU43
 203 000e 0C46     		mov	r4, r1
 204 0010 8DF80B30 		strb	r3, [sp, #11]
 205              	.LVL17:
 206              	.LBB32:
 207              	.LBI26:
1220:Src/bno055/bno055.c ****                            uint32_t buf_size) {
 208              		.loc 1 1220 11 is_stmt 1 view .LVU44
 209              	.LBB29:
1222:Src/bno055/bno055.c ****     // err = HAL_I2C_Mem_Read(imu.i2c, imu.addr, addr, I2C_MEMADD_SIZE_8BIT,
 210              		.loc 1 1222 5 view .LVU45
1226:Src/bno055/bno055.c ****     if (err != HAL_OK) {
 211              		.loc 1 1226 5 view .LVU46
1226:Src/bno055/bno055.c ****     if (err != HAL_OK) {
 212              		.loc 1 1226 11 is_stmt 0 view .LVU47
 213 0014 0097     		str	r7, [sp]
 214              	.LVL18:
1226:Src/bno055/bno055.c ****     if (err != HAL_OK) {
 215              		.loc 1 1226 11 view .LVU48
 216 0016 0123     		movs	r3, #1
 217              	.LVL19:
1226:Src/bno055/bno055.c ****     if (err != HAL_OK) {
 218              		.loc 1 1226 11 view .LVU49
 219 0018 0DF10B02 		add	r2, sp, #11
 220              	.LVL20:
1226:Src/bno055/bno055.c ****     if (err != HAL_OK) {
 221              		.loc 1 1226 11 view .LVU50
 222 001c 3146     		mov	r1, r6
 223              	.LVL21:
1226:Src/bno055/bno055.c ****     if (err != HAL_OK) {
 224              		.loc 1 1226 11 view .LVU51
ARM GAS  /tmp/cc9CDFEk.s 			page 27


 225 001e 2846     		mov	r0, r5
 226              	.LVL22:
1226:Src/bno055/bno055.c ****     if (err != HAL_OK) {
 227              		.loc 1 1226 11 view .LVU52
 228 0020 FFF7FEFF 		bl	HAL_I2C_Master_Transmit
 229              	.LVL23:
1227:Src/bno055/bno055.c ****         return BNO_ERR_I2C;
 230              		.loc 1 1227 5 is_stmt 1 view .LVU53
1227:Src/bno055/bno055.c ****         return BNO_ERR_I2C;
 231              		.loc 1 1227 8 is_stmt 0 view .LVU54
 232 0024 10B1     		cbz	r0, .L8
 233              	.L10:
 234              	.LVL24:
1228:Src/bno055/bno055.c ****     }
 235              		.loc 1 1228 16 view .LVU55
 236 0026 0120     		movs	r0, #1
 237              	.LBE29:
 238              	.LBE32:
1035:Src/bno055/bno055.c **** 
 239              		.loc 1 1035 1 view .LVU56
 240 0028 05B0     		add	sp, sp, #20
 241              	.LCFI7:
 242              		.cfi_remember_state
 243              		.cfi_def_cfa_offset 20
 244              		@ sp needed
 245 002a F0BD     		pop	{r4, r5, r6, r7, pc}
 246              	.LVL25:
 247              	.L8:
 248              	.LCFI8:
 249              		.cfi_restore_state
 250              	.LBB33:
 251              	.LBB30:
1230:Src/bno055/bno055.c ****         HAL_I2C_Master_Receive(imu.i2c, imu.addr, buf, buf_size, HAL_MAX_DELAY);
 252              		.loc 1 1230 5 is_stmt 1 view .LVU57
1231:Src/bno055/bno055.c ****     if (err != HAL_OK) {
 253              		.loc 1 1231 9 is_stmt 0 view .LVU58
 254 002c 0097     		str	r7, [sp]
 255 002e 0223     		movs	r3, #2
 256 0030 03AA     		add	r2, sp, #12
 257              	.LVL26:
1231:Src/bno055/bno055.c ****     if (err != HAL_OK) {
 258              		.loc 1 1231 9 view .LVU59
 259 0032 3146     		mov	r1, r6
 260 0034 2846     		mov	r0, r5
 261              	.LVL27:
1231:Src/bno055/bno055.c ****     if (err != HAL_OK) {
 262              		.loc 1 1231 9 view .LVU60
 263 0036 FFF7FEFF 		bl	HAL_I2C_Master_Receive
 264              	.LVL28:
 265              		.loc 1 1232 5 is_stmt 1 view .LVU61
 266              		.loc 1 1232 8 is_stmt 0 view .LVU62
 267 003a 0028     		cmp	r0, #0
 268 003c F3D1     		bne	.L10
 269              	.LVL29:
 270              		.loc 1 1232 8 view .LVU63
 271              	.LBE30:
 272              	.LBE33:
ARM GAS  /tmp/cc9CDFEk.s 			page 28


1033:Src/bno055/bno055.c ****     return BNO_OK;
 273              		.loc 1 1033 5 is_stmt 1 view .LVU64
1033:Src/bno055/bno055.c ****     return BNO_OK;
 274              		.loc 1 1033 44 is_stmt 0 view .LVU65
 275 003e BDF90C30 		ldrsh	r3, [sp, #12]
 276 0042 07EE903A 		vmov	s15, r3	@ int
 277 0046 FAEEC97A 		vcvt.f32.s32	s15, s15, #14
1033:Src/bno055/bno055.c ****     return BNO_OK;
 278              		.loc 1 1033 10 view .LVU66
 279 004a C4ED007A 		vstr.32	s15, [r4]
1034:Src/bno055/bno055.c **** }
 280              		.loc 1 1034 5 is_stmt 1 view .LVU67
1035:Src/bno055/bno055.c **** 
 281              		.loc 1 1035 1 is_stmt 0 view .LVU68
 282 004e 05B0     		add	sp, sp, #20
 283              	.LCFI9:
 284              		.cfi_def_cfa_offset 20
 285              		@ sp needed
 286 0050 F0BD     		pop	{r4, r5, r6, r7, pc}
1035:Src/bno055/bno055.c **** 
 287              		.loc 1 1035 1 view .LVU69
 288              		.cfi_endproc
 289              	.LFE160:
 291 0052 00BF     		.section	.text.bno055_mag_x,"ax",%progbits
 292              		.align	1
 293              		.p2align 2,,3
 294              		.global	bno055_mag_x
 295              		.syntax unified
 296              		.thumb
 297              		.thumb_func
 298              		.fpu fpv4-sp-d16
 300              	bno055_mag_x:
 301              	.LVL30:
 302              	.LFB147:
 574:Src/bno055/bno055.c ****     error_bno err;
 303              		.loc 1 574 49 is_stmt 1 view -0
 304              		.cfi_startproc
 305              		@ args = 0, pretend = 0, frame = 8
 306              		@ frame_needed = 0, uses_anonymous_args = 0
 575:Src/bno055/bno055.c **** #ifdef BNO_AUTO_PAGE_SET
 307              		.loc 1 575 5 view .LVU71
 581:Src/bno055/bno055.c ****     if ((err = bno055_read_regs(*imu, BNO_MAG_DATA_X_LSB, data, 2)) != BNO_OK) {
 308              		.loc 1 581 5 view .LVU72
 582:Src/bno055/bno055.c ****         return err;
 309              		.loc 1 582 5 view .LVU73
 574:Src/bno055/bno055.c ****     error_bno err;
 310              		.loc 1 574 49 is_stmt 0 view .LVU74
 311 0000 F0B5     		push	{r4, r5, r6, r7, lr}
 312              	.LCFI10:
 313              		.cfi_def_cfa_offset 20
 314              		.cfi_offset 4, -20
 315              		.cfi_offset 5, -16
 316              		.cfi_offset 6, -12
 317              		.cfi_offset 7, -8
 318              		.cfi_offset 14, -4
 319 0002 0568     		ldr	r5, [r0]
 320              	.LVL31:
ARM GAS  /tmp/cc9CDFEk.s 			page 29


 321              	.LBB36:
 322              	.LBB37:
1226:Src/bno055/bno055.c ****     if (err != HAL_OK) {
 323              		.loc 1 1226 11 view .LVU75
 324 0004 8679     		ldrb	r6, [r0, #6]	@ zero_extendqisi2
 325              	.LBE37:
 326              	.LBE36:
 574:Src/bno055/bno055.c ****     error_bno err;
 327              		.loc 1 574 49 view .LVU76
 328 0006 85B0     		sub	sp, sp, #20
 329              	.LCFI11:
 330              		.cfi_def_cfa_offset 40
 331 0008 0E23     		movs	r3, #14
 332              	.LBB41:
 333              	.LBB38:
1226:Src/bno055/bno055.c ****     if (err != HAL_OK) {
 334              		.loc 1 1226 11 view .LVU77
 335 000a 4FF0FF37 		mov	r7, #-1
 336              	.LBE38:
 337              	.LBE41:
 574:Src/bno055/bno055.c ****     error_bno err;
 338              		.loc 1 574 49 view .LVU78
 339 000e 0C46     		mov	r4, r1
 340 0010 8DF80B30 		strb	r3, [sp, #11]
 341              	.LVL32:
 342              	.LBB42:
 343              	.LBI36:
1220:Src/bno055/bno055.c ****                            uint32_t buf_size) {
 344              		.loc 1 1220 11 is_stmt 1 view .LVU79
 345              	.LBB39:
1222:Src/bno055/bno055.c ****     // err = HAL_I2C_Mem_Read(imu.i2c, imu.addr, addr, I2C_MEMADD_SIZE_8BIT,
 346              		.loc 1 1222 5 view .LVU80
1226:Src/bno055/bno055.c ****     if (err != HAL_OK) {
 347              		.loc 1 1226 5 view .LVU81
1226:Src/bno055/bno055.c ****     if (err != HAL_OK) {
 348              		.loc 1 1226 11 is_stmt 0 view .LVU82
 349 0014 0097     		str	r7, [sp]
 350              	.LVL33:
1226:Src/bno055/bno055.c ****     if (err != HAL_OK) {
 351              		.loc 1 1226 11 view .LVU83
 352 0016 0123     		movs	r3, #1
 353              	.LVL34:
1226:Src/bno055/bno055.c ****     if (err != HAL_OK) {
 354              		.loc 1 1226 11 view .LVU84
 355 0018 0DF10B02 		add	r2, sp, #11
 356              	.LVL35:
1226:Src/bno055/bno055.c ****     if (err != HAL_OK) {
 357              		.loc 1 1226 11 view .LVU85
 358 001c 3146     		mov	r1, r6
 359              	.LVL36:
1226:Src/bno055/bno055.c ****     if (err != HAL_OK) {
 360              		.loc 1 1226 11 view .LVU86
 361 001e 2846     		mov	r0, r5
 362              	.LVL37:
1226:Src/bno055/bno055.c ****     if (err != HAL_OK) {
 363              		.loc 1 1226 11 view .LVU87
 364 0020 FFF7FEFF 		bl	HAL_I2C_Master_Transmit
ARM GAS  /tmp/cc9CDFEk.s 			page 30


 365              	.LVL38:
1227:Src/bno055/bno055.c ****         return BNO_ERR_I2C;
 366              		.loc 1 1227 5 is_stmt 1 view .LVU88
1227:Src/bno055/bno055.c ****         return BNO_ERR_I2C;
 367              		.loc 1 1227 8 is_stmt 0 view .LVU89
 368 0024 10B1     		cbz	r0, .L13
 369              	.L15:
 370              	.LVL39:
1228:Src/bno055/bno055.c ****     }
 371              		.loc 1 1228 16 view .LVU90
 372 0026 0120     		movs	r0, #1
 373              	.LBE39:
 374              	.LBE42:
 588:Src/bno055/bno055.c **** 
 375              		.loc 1 588 1 view .LVU91
 376 0028 05B0     		add	sp, sp, #20
 377              	.LCFI12:
 378              		.cfi_remember_state
 379              		.cfi_def_cfa_offset 20
 380              		@ sp needed
 381 002a F0BD     		pop	{r4, r5, r6, r7, pc}
 382              	.LVL40:
 383              	.L13:
 384              	.LCFI13:
 385              		.cfi_restore_state
 386              	.LBB43:
 387              	.LBB40:
1230:Src/bno055/bno055.c ****         HAL_I2C_Master_Receive(imu.i2c, imu.addr, buf, buf_size, HAL_MAX_DELAY);
 388              		.loc 1 1230 5 is_stmt 1 view .LVU92
1231:Src/bno055/bno055.c ****     if (err != HAL_OK) {
 389              		.loc 1 1231 9 is_stmt 0 view .LVU93
 390 002c 0097     		str	r7, [sp]
 391 002e 0223     		movs	r3, #2
 392 0030 03AA     		add	r2, sp, #12
 393              	.LVL41:
1231:Src/bno055/bno055.c ****     if (err != HAL_OK) {
 394              		.loc 1 1231 9 view .LVU94
 395 0032 3146     		mov	r1, r6
 396 0034 2846     		mov	r0, r5
 397              	.LVL42:
1231:Src/bno055/bno055.c ****     if (err != HAL_OK) {
 398              		.loc 1 1231 9 view .LVU95
 399 0036 FFF7FEFF 		bl	HAL_I2C_Master_Receive
 400              	.LVL43:
 401              		.loc 1 1232 5 is_stmt 1 view .LVU96
 402              		.loc 1 1232 8 is_stmt 0 view .LVU97
 403 003a 0028     		cmp	r0, #0
 404 003c F3D1     		bne	.L15
 405              	.LVL44:
 406              		.loc 1 1232 8 view .LVU98
 407              	.LBE40:
 408              	.LBE43:
 586:Src/bno055/bno055.c ****     return BNO_OK;
 409              		.loc 1 586 5 is_stmt 1 view .LVU99
 586:Src/bno055/bno055.c ****     return BNO_OK;
 410              		.loc 1 586 44 is_stmt 0 view .LVU100
 411 003e BDF90C30 		ldrsh	r3, [sp, #12]
ARM GAS  /tmp/cc9CDFEk.s 			page 31


 412 0042 07EE903A 		vmov	s15, r3	@ int
 413 0046 FAEECE7A 		vcvt.f32.s32	s15, s15, #4
 586:Src/bno055/bno055.c ****     return BNO_OK;
 414              		.loc 1 586 10 view .LVU101
 415 004a C4ED007A 		vstr.32	s15, [r4]
 587:Src/bno055/bno055.c **** }
 416              		.loc 1 587 5 is_stmt 1 view .LVU102
 588:Src/bno055/bno055.c **** 
 417              		.loc 1 588 1 is_stmt 0 view .LVU103
 418 004e 05B0     		add	sp, sp, #20
 419              	.LCFI14:
 420              		.cfi_def_cfa_offset 20
 421              		@ sp needed
 422 0050 F0BD     		pop	{r4, r5, r6, r7, pc}
 588:Src/bno055/bno055.c **** 
 423              		.loc 1 588 1 view .LVU104
 424              		.cfi_endproc
 425              	.LFE147:
 427 0052 00BF     		.section	.text.bno055_mag_y,"ax",%progbits
 428              		.align	1
 429              		.p2align 2,,3
 430              		.global	bno055_mag_y
 431              		.syntax unified
 432              		.thumb
 433              		.thumb_func
 434              		.fpu fpv4-sp-d16
 436              	bno055_mag_y:
 437              	.LVL45:
 438              	.LFB148:
 608:Src/bno055/bno055.c ****     error_bno err;
 439              		.loc 1 608 49 is_stmt 1 view -0
 440              		.cfi_startproc
 441              		@ args = 0, pretend = 0, frame = 8
 442              		@ frame_needed = 0, uses_anonymous_args = 0
 609:Src/bno055/bno055.c **** #ifdef BNO_AUTO_PAGE_SET
 443              		.loc 1 609 5 view .LVU106
 615:Src/bno055/bno055.c ****     if ((err = bno055_read_regs(*imu, BNO_MAG_DATA_Y_LSB, data, 2)) != BNO_OK) {
 444              		.loc 1 615 5 view .LVU107
 616:Src/bno055/bno055.c ****         return err;
 445              		.loc 1 616 5 view .LVU108
 608:Src/bno055/bno055.c ****     error_bno err;
 446              		.loc 1 608 49 is_stmt 0 view .LVU109
 447 0000 F0B5     		push	{r4, r5, r6, r7, lr}
 448              	.LCFI15:
 449              		.cfi_def_cfa_offset 20
 450              		.cfi_offset 4, -20
 451              		.cfi_offset 5, -16
 452              		.cfi_offset 6, -12
 453              		.cfi_offset 7, -8
 454              		.cfi_offset 14, -4
 455 0002 0568     		ldr	r5, [r0]
 456              	.LVL46:
 457              	.LBB46:
 458              	.LBB47:
1226:Src/bno055/bno055.c ****     if (err != HAL_OK) {
 459              		.loc 1 1226 11 view .LVU110
 460 0004 8679     		ldrb	r6, [r0, #6]	@ zero_extendqisi2
ARM GAS  /tmp/cc9CDFEk.s 			page 32


 461              	.LBE47:
 462              	.LBE46:
 608:Src/bno055/bno055.c ****     error_bno err;
 463              		.loc 1 608 49 view .LVU111
 464 0006 85B0     		sub	sp, sp, #20
 465              	.LCFI16:
 466              		.cfi_def_cfa_offset 40
 467 0008 1023     		movs	r3, #16
 468              	.LBB51:
 469              	.LBB48:
1226:Src/bno055/bno055.c ****     if (err != HAL_OK) {
 470              		.loc 1 1226 11 view .LVU112
 471 000a 4FF0FF37 		mov	r7, #-1
 472              	.LBE48:
 473              	.LBE51:
 608:Src/bno055/bno055.c ****     error_bno err;
 474              		.loc 1 608 49 view .LVU113
 475 000e 0C46     		mov	r4, r1
 476 0010 8DF80B30 		strb	r3, [sp, #11]
 477              	.LVL47:
 478              	.LBB52:
 479              	.LBI46:
1220:Src/bno055/bno055.c ****                            uint32_t buf_size) {
 480              		.loc 1 1220 11 is_stmt 1 view .LVU114
 481              	.LBB49:
1222:Src/bno055/bno055.c ****     // err = HAL_I2C_Mem_Read(imu.i2c, imu.addr, addr, I2C_MEMADD_SIZE_8BIT,
 482              		.loc 1 1222 5 view .LVU115
1226:Src/bno055/bno055.c ****     if (err != HAL_OK) {
 483              		.loc 1 1226 5 view .LVU116
1226:Src/bno055/bno055.c ****     if (err != HAL_OK) {
 484              		.loc 1 1226 11 is_stmt 0 view .LVU117
 485 0014 0097     		str	r7, [sp]
 486              	.LVL48:
1226:Src/bno055/bno055.c ****     if (err != HAL_OK) {
 487              		.loc 1 1226 11 view .LVU118
 488 0016 0123     		movs	r3, #1
 489              	.LVL49:
1226:Src/bno055/bno055.c ****     if (err != HAL_OK) {
 490              		.loc 1 1226 11 view .LVU119
 491 0018 0DF10B02 		add	r2, sp, #11
 492              	.LVL50:
1226:Src/bno055/bno055.c ****     if (err != HAL_OK) {
 493              		.loc 1 1226 11 view .LVU120
 494 001c 3146     		mov	r1, r6
 495              	.LVL51:
1226:Src/bno055/bno055.c ****     if (err != HAL_OK) {
 496              		.loc 1 1226 11 view .LVU121
 497 001e 2846     		mov	r0, r5
 498              	.LVL52:
1226:Src/bno055/bno055.c ****     if (err != HAL_OK) {
 499              		.loc 1 1226 11 view .LVU122
 500 0020 FFF7FEFF 		bl	HAL_I2C_Master_Transmit
 501              	.LVL53:
1227:Src/bno055/bno055.c ****         return BNO_ERR_I2C;
 502              		.loc 1 1227 5 is_stmt 1 view .LVU123
1227:Src/bno055/bno055.c ****         return BNO_ERR_I2C;
 503              		.loc 1 1227 8 is_stmt 0 view .LVU124
ARM GAS  /tmp/cc9CDFEk.s 			page 33


 504 0024 10B1     		cbz	r0, .L18
 505              	.L20:
 506              	.LVL54:
1228:Src/bno055/bno055.c ****     }
 507              		.loc 1 1228 16 view .LVU125
 508 0026 0120     		movs	r0, #1
 509              	.LBE49:
 510              	.LBE52:
 622:Src/bno055/bno055.c **** 
 511              		.loc 1 622 1 view .LVU126
 512 0028 05B0     		add	sp, sp, #20
 513              	.LCFI17:
 514              		.cfi_remember_state
 515              		.cfi_def_cfa_offset 20
 516              		@ sp needed
 517 002a F0BD     		pop	{r4, r5, r6, r7, pc}
 518              	.LVL55:
 519              	.L18:
 520              	.LCFI18:
 521              		.cfi_restore_state
 522              	.LBB53:
 523              	.LBB50:
1230:Src/bno055/bno055.c ****         HAL_I2C_Master_Receive(imu.i2c, imu.addr, buf, buf_size, HAL_MAX_DELAY);
 524              		.loc 1 1230 5 is_stmt 1 view .LVU127
1231:Src/bno055/bno055.c ****     if (err != HAL_OK) {
 525              		.loc 1 1231 9 is_stmt 0 view .LVU128
 526 002c 0097     		str	r7, [sp]
 527 002e 0223     		movs	r3, #2
 528 0030 03AA     		add	r2, sp, #12
 529              	.LVL56:
1231:Src/bno055/bno055.c ****     if (err != HAL_OK) {
 530              		.loc 1 1231 9 view .LVU129
 531 0032 3146     		mov	r1, r6
 532 0034 2846     		mov	r0, r5
 533              	.LVL57:
1231:Src/bno055/bno055.c ****     if (err != HAL_OK) {
 534              		.loc 1 1231 9 view .LVU130
 535 0036 FFF7FEFF 		bl	HAL_I2C_Master_Receive
 536              	.LVL58:
 537              		.loc 1 1232 5 is_stmt 1 view .LVU131
 538              		.loc 1 1232 8 is_stmt 0 view .LVU132
 539 003a 0028     		cmp	r0, #0
 540 003c F3D1     		bne	.L20
 541              	.LVL59:
 542              		.loc 1 1232 8 view .LVU133
 543              	.LBE50:
 544              	.LBE53:
 620:Src/bno055/bno055.c ****     return BNO_OK;
 545              		.loc 1 620 5 is_stmt 1 view .LVU134
 620:Src/bno055/bno055.c ****     return BNO_OK;
 546              		.loc 1 620 44 is_stmt 0 view .LVU135
 547 003e BDF90C30 		ldrsh	r3, [sp, #12]
 548 0042 07EE903A 		vmov	s15, r3	@ int
 549 0046 FAEECE7A 		vcvt.f32.s32	s15, s15, #4
 620:Src/bno055/bno055.c ****     return BNO_OK;
 550              		.loc 1 620 10 view .LVU136
 551 004a C4ED007A 		vstr.32	s15, [r4]
ARM GAS  /tmp/cc9CDFEk.s 			page 34


 621:Src/bno055/bno055.c **** }
 552              		.loc 1 621 5 is_stmt 1 view .LVU137
 622:Src/bno055/bno055.c **** 
 553              		.loc 1 622 1 is_stmt 0 view .LVU138
 554 004e 05B0     		add	sp, sp, #20
 555              	.LCFI19:
 556              		.cfi_def_cfa_offset 20
 557              		@ sp needed
 558 0050 F0BD     		pop	{r4, r5, r6, r7, pc}
 622:Src/bno055/bno055.c **** 
 559              		.loc 1 622 1 view .LVU139
 560              		.cfi_endproc
 561              	.LFE148:
 563 0052 00BF     		.section	.text.bno055_mag_z,"ax",%progbits
 564              		.align	1
 565              		.p2align 2,,3
 566              		.global	bno055_mag_z
 567              		.syntax unified
 568              		.thumb
 569              		.thumb_func
 570              		.fpu fpv4-sp-d16
 572              	bno055_mag_z:
 573              	.LVL60:
 574              	.LFB149:
 641:Src/bno055/bno055.c ****     error_bno err;
 575              		.loc 1 641 49 is_stmt 1 view -0
 576              		.cfi_startproc
 577              		@ args = 0, pretend = 0, frame = 8
 578              		@ frame_needed = 0, uses_anonymous_args = 0
 642:Src/bno055/bno055.c **** #ifdef BNO_AUTO_PAGE_SET
 579              		.loc 1 642 5 view .LVU141
 648:Src/bno055/bno055.c ****     if ((err = bno055_read_regs(*imu, BNO_MAG_DATA_Z_LSB, data, 2)) != BNO_OK) {
 580              		.loc 1 648 5 view .LVU142
 649:Src/bno055/bno055.c ****         return err;
 581              		.loc 1 649 5 view .LVU143
 641:Src/bno055/bno055.c ****     error_bno err;
 582              		.loc 1 641 49 is_stmt 0 view .LVU144
 583 0000 F0B5     		push	{r4, r5, r6, r7, lr}
 584              	.LCFI20:
 585              		.cfi_def_cfa_offset 20
 586              		.cfi_offset 4, -20
 587              		.cfi_offset 5, -16
 588              		.cfi_offset 6, -12
 589              		.cfi_offset 7, -8
 590              		.cfi_offset 14, -4
 591 0002 0568     		ldr	r5, [r0]
 592              	.LVL61:
 593              	.LBB56:
 594              	.LBB57:
1226:Src/bno055/bno055.c ****     if (err != HAL_OK) {
 595              		.loc 1 1226 11 view .LVU145
 596 0004 8679     		ldrb	r6, [r0, #6]	@ zero_extendqisi2
 597              	.LBE57:
 598              	.LBE56:
 641:Src/bno055/bno055.c ****     error_bno err;
 599              		.loc 1 641 49 view .LVU146
 600 0006 85B0     		sub	sp, sp, #20
ARM GAS  /tmp/cc9CDFEk.s 			page 35


 601              	.LCFI21:
 602              		.cfi_def_cfa_offset 40
 603 0008 1223     		movs	r3, #18
 604              	.LBB61:
 605              	.LBB58:
1226:Src/bno055/bno055.c ****     if (err != HAL_OK) {
 606              		.loc 1 1226 11 view .LVU147
 607 000a 4FF0FF37 		mov	r7, #-1
 608              	.LBE58:
 609              	.LBE61:
 641:Src/bno055/bno055.c ****     error_bno err;
 610              		.loc 1 641 49 view .LVU148
 611 000e 0C46     		mov	r4, r1
 612 0010 8DF80B30 		strb	r3, [sp, #11]
 613              	.LVL62:
 614              	.LBB62:
 615              	.LBI56:
1220:Src/bno055/bno055.c ****                            uint32_t buf_size) {
 616              		.loc 1 1220 11 is_stmt 1 view .LVU149
 617              	.LBB59:
1222:Src/bno055/bno055.c ****     // err = HAL_I2C_Mem_Read(imu.i2c, imu.addr, addr, I2C_MEMADD_SIZE_8BIT,
 618              		.loc 1 1222 5 view .LVU150
1226:Src/bno055/bno055.c ****     if (err != HAL_OK) {
 619              		.loc 1 1226 5 view .LVU151
1226:Src/bno055/bno055.c ****     if (err != HAL_OK) {
 620              		.loc 1 1226 11 is_stmt 0 view .LVU152
 621 0014 0097     		str	r7, [sp]
 622              	.LVL63:
1226:Src/bno055/bno055.c ****     if (err != HAL_OK) {
 623              		.loc 1 1226 11 view .LVU153
 624 0016 0123     		movs	r3, #1
 625              	.LVL64:
1226:Src/bno055/bno055.c ****     if (err != HAL_OK) {
 626              		.loc 1 1226 11 view .LVU154
 627 0018 0DF10B02 		add	r2, sp, #11
 628              	.LVL65:
1226:Src/bno055/bno055.c ****     if (err != HAL_OK) {
 629              		.loc 1 1226 11 view .LVU155
 630 001c 3146     		mov	r1, r6
 631              	.LVL66:
1226:Src/bno055/bno055.c ****     if (err != HAL_OK) {
 632              		.loc 1 1226 11 view .LVU156
 633 001e 2846     		mov	r0, r5
 634              	.LVL67:
1226:Src/bno055/bno055.c ****     if (err != HAL_OK) {
 635              		.loc 1 1226 11 view .LVU157
 636 0020 FFF7FEFF 		bl	HAL_I2C_Master_Transmit
 637              	.LVL68:
1227:Src/bno055/bno055.c ****         return BNO_ERR_I2C;
 638              		.loc 1 1227 5 is_stmt 1 view .LVU158
1227:Src/bno055/bno055.c ****         return BNO_ERR_I2C;
 639              		.loc 1 1227 8 is_stmt 0 view .LVU159
 640 0024 10B1     		cbz	r0, .L23
 641              	.L25:
 642              	.LVL69:
1228:Src/bno055/bno055.c ****     }
 643              		.loc 1 1228 16 view .LVU160
ARM GAS  /tmp/cc9CDFEk.s 			page 36


 644 0026 0120     		movs	r0, #1
 645              	.LBE59:
 646              	.LBE62:
 655:Src/bno055/bno055.c **** 
 647              		.loc 1 655 1 view .LVU161
 648 0028 05B0     		add	sp, sp, #20
 649              	.LCFI22:
 650              		.cfi_remember_state
 651              		.cfi_def_cfa_offset 20
 652              		@ sp needed
 653 002a F0BD     		pop	{r4, r5, r6, r7, pc}
 654              	.LVL70:
 655              	.L23:
 656              	.LCFI23:
 657              		.cfi_restore_state
 658              	.LBB63:
 659              	.LBB60:
1230:Src/bno055/bno055.c ****         HAL_I2C_Master_Receive(imu.i2c, imu.addr, buf, buf_size, HAL_MAX_DELAY);
 660              		.loc 1 1230 5 is_stmt 1 view .LVU162
1231:Src/bno055/bno055.c ****     if (err != HAL_OK) {
 661              		.loc 1 1231 9 is_stmt 0 view .LVU163
 662 002c 0097     		str	r7, [sp]
 663 002e 0223     		movs	r3, #2
 664 0030 03AA     		add	r2, sp, #12
 665              	.LVL71:
1231:Src/bno055/bno055.c ****     if (err != HAL_OK) {
 666              		.loc 1 1231 9 view .LVU164
 667 0032 3146     		mov	r1, r6
 668 0034 2846     		mov	r0, r5
 669              	.LVL72:
1231:Src/bno055/bno055.c ****     if (err != HAL_OK) {
 670              		.loc 1 1231 9 view .LVU165
 671 0036 FFF7FEFF 		bl	HAL_I2C_Master_Receive
 672              	.LVL73:
 673              		.loc 1 1232 5 is_stmt 1 view .LVU166
 674              		.loc 1 1232 8 is_stmt 0 view .LVU167
 675 003a 0028     		cmp	r0, #0
 676 003c F3D1     		bne	.L25
 677              	.LVL74:
 678              		.loc 1 1232 8 view .LVU168
 679              	.LBE60:
 680              	.LBE63:
 653:Src/bno055/bno055.c ****     return BNO_OK;
 681              		.loc 1 653 5 is_stmt 1 view .LVU169
 653:Src/bno055/bno055.c ****     return BNO_OK;
 682              		.loc 1 653 44 is_stmt 0 view .LVU170
 683 003e BDF90C30 		ldrsh	r3, [sp, #12]
 684 0042 07EE903A 		vmov	s15, r3	@ int
 685 0046 FAEECE7A 		vcvt.f32.s32	s15, s15, #4
 653:Src/bno055/bno055.c ****     return BNO_OK;
 686              		.loc 1 653 10 view .LVU171
 687 004a C4ED007A 		vstr.32	s15, [r4]
 654:Src/bno055/bno055.c **** }
 688              		.loc 1 654 5 is_stmt 1 view .LVU172
 655:Src/bno055/bno055.c **** 
 689              		.loc 1 655 1 is_stmt 0 view .LVU173
 690 004e 05B0     		add	sp, sp, #20
ARM GAS  /tmp/cc9CDFEk.s 			page 37


 691              	.LCFI24:
 692              		.cfi_def_cfa_offset 20
 693              		@ sp needed
 694 0050 F0BD     		pop	{r4, r5, r6, r7, pc}
 655:Src/bno055/bno055.c **** 
 695              		.loc 1 655 1 view .LVU174
 696              		.cfi_endproc
 697              	.LFE149:
 699 0052 00BF     		.section	.text.bno055_quaternion_y,"ax",%progbits
 700              		.align	1
 701              		.p2align 2,,3
 702              		.global	bno055_quaternion_y
 703              		.syntax unified
 704              		.thumb
 705              		.thumb_func
 706              		.fpu fpv4-sp-d16
 708              	bno055_quaternion_y:
 709              	.LVL75:
 710              	.LFB161:
1054:Src/bno055/bno055.c ****     error_bno err;
 711              		.loc 1 1054 56 is_stmt 1 view -0
 712              		.cfi_startproc
 713              		@ args = 0, pretend = 0, frame = 8
 714              		@ frame_needed = 0, uses_anonymous_args = 0
1055:Src/bno055/bno055.c **** #ifdef BNO_AUTO_PAGE_SET
 715              		.loc 1 1055 5 view .LVU176
1061:Src/bno055/bno055.c ****     if ((err = bno055_read_regs(*imu, BNO_QUA_DATA_Y_LSB, data, 2)) != BNO_OK) {
 716              		.loc 1 1061 5 view .LVU177
1062:Src/bno055/bno055.c ****         return err;
 717              		.loc 1 1062 5 view .LVU178
1054:Src/bno055/bno055.c ****     error_bno err;
 718              		.loc 1 1054 56 is_stmt 0 view .LVU179
 719 0000 F0B5     		push	{r4, r5, r6, r7, lr}
 720              	.LCFI25:
 721              		.cfi_def_cfa_offset 20
 722              		.cfi_offset 4, -20
 723              		.cfi_offset 5, -16
 724              		.cfi_offset 6, -12
 725              		.cfi_offset 7, -8
 726              		.cfi_offset 14, -4
 727 0002 0568     		ldr	r5, [r0]
 728              	.LVL76:
 729              	.LBB66:
 730              	.LBB67:
1226:Src/bno055/bno055.c ****     if (err != HAL_OK) {
 731              		.loc 1 1226 11 view .LVU180
 732 0004 8679     		ldrb	r6, [r0, #6]	@ zero_extendqisi2
 733              	.LBE67:
 734              	.LBE66:
1054:Src/bno055/bno055.c ****     error_bno err;
 735              		.loc 1 1054 56 view .LVU181
 736 0006 85B0     		sub	sp, sp, #20
 737              	.LCFI26:
 738              		.cfi_def_cfa_offset 40
 739 0008 2423     		movs	r3, #36
 740              	.LBB71:
 741              	.LBB68:
ARM GAS  /tmp/cc9CDFEk.s 			page 38


1226:Src/bno055/bno055.c ****     if (err != HAL_OK) {
 742              		.loc 1 1226 11 view .LVU182
 743 000a 4FF0FF37 		mov	r7, #-1
 744              	.LBE68:
 745              	.LBE71:
1054:Src/bno055/bno055.c ****     error_bno err;
 746              		.loc 1 1054 56 view .LVU183
 747 000e 0C46     		mov	r4, r1
 748 0010 8DF80B30 		strb	r3, [sp, #11]
 749              	.LVL77:
 750              	.LBB72:
 751              	.LBI66:
1220:Src/bno055/bno055.c ****                            uint32_t buf_size) {
 752              		.loc 1 1220 11 is_stmt 1 view .LVU184
 753              	.LBB69:
1222:Src/bno055/bno055.c ****     // err = HAL_I2C_Mem_Read(imu.i2c, imu.addr, addr, I2C_MEMADD_SIZE_8BIT,
 754              		.loc 1 1222 5 view .LVU185
1226:Src/bno055/bno055.c ****     if (err != HAL_OK) {
 755              		.loc 1 1226 5 view .LVU186
1226:Src/bno055/bno055.c ****     if (err != HAL_OK) {
 756              		.loc 1 1226 11 is_stmt 0 view .LVU187
 757 0014 0097     		str	r7, [sp]
 758              	.LVL78:
1226:Src/bno055/bno055.c ****     if (err != HAL_OK) {
 759              		.loc 1 1226 11 view .LVU188
 760 0016 0123     		movs	r3, #1
 761              	.LVL79:
1226:Src/bno055/bno055.c ****     if (err != HAL_OK) {
 762              		.loc 1 1226 11 view .LVU189
 763 0018 0DF10B02 		add	r2, sp, #11
 764              	.LVL80:
1226:Src/bno055/bno055.c ****     if (err != HAL_OK) {
 765              		.loc 1 1226 11 view .LVU190
 766 001c 3146     		mov	r1, r6
 767              	.LVL81:
1226:Src/bno055/bno055.c ****     if (err != HAL_OK) {
 768              		.loc 1 1226 11 view .LVU191
 769 001e 2846     		mov	r0, r5
 770              	.LVL82:
1226:Src/bno055/bno055.c ****     if (err != HAL_OK) {
 771              		.loc 1 1226 11 view .LVU192
 772 0020 FFF7FEFF 		bl	HAL_I2C_Master_Transmit
 773              	.LVL83:
1227:Src/bno055/bno055.c ****         return BNO_ERR_I2C;
 774              		.loc 1 1227 5 is_stmt 1 view .LVU193
1227:Src/bno055/bno055.c ****         return BNO_ERR_I2C;
 775              		.loc 1 1227 8 is_stmt 0 view .LVU194
 776 0024 10B1     		cbz	r0, .L28
 777              	.L30:
 778              	.LVL84:
1228:Src/bno055/bno055.c ****     }
 779              		.loc 1 1228 16 view .LVU195
 780 0026 0120     		movs	r0, #1
 781              	.LBE69:
 782              	.LBE72:
1067:Src/bno055/bno055.c **** 
 783              		.loc 1 1067 1 view .LVU196
ARM GAS  /tmp/cc9CDFEk.s 			page 39


 784 0028 05B0     		add	sp, sp, #20
 785              	.LCFI27:
 786              		.cfi_remember_state
 787              		.cfi_def_cfa_offset 20
 788              		@ sp needed
 789 002a F0BD     		pop	{r4, r5, r6, r7, pc}
 790              	.LVL85:
 791              	.L28:
 792              	.LCFI28:
 793              		.cfi_restore_state
 794              	.LBB73:
 795              	.LBB70:
1230:Src/bno055/bno055.c ****         HAL_I2C_Master_Receive(imu.i2c, imu.addr, buf, buf_size, HAL_MAX_DELAY);
 796              		.loc 1 1230 5 is_stmt 1 view .LVU197
1231:Src/bno055/bno055.c ****     if (err != HAL_OK) {
 797              		.loc 1 1231 9 is_stmt 0 view .LVU198
 798 002c 0097     		str	r7, [sp]
 799 002e 0223     		movs	r3, #2
 800 0030 03AA     		add	r2, sp, #12
 801              	.LVL86:
1231:Src/bno055/bno055.c ****     if (err != HAL_OK) {
 802              		.loc 1 1231 9 view .LVU199
 803 0032 3146     		mov	r1, r6
 804 0034 2846     		mov	r0, r5
 805              	.LVL87:
1231:Src/bno055/bno055.c ****     if (err != HAL_OK) {
 806              		.loc 1 1231 9 view .LVU200
 807 0036 FFF7FEFF 		bl	HAL_I2C_Master_Receive
 808              	.LVL88:
 809              		.loc 1 1232 5 is_stmt 1 view .LVU201
 810              		.loc 1 1232 8 is_stmt 0 view .LVU202
 811 003a 0028     		cmp	r0, #0
 812 003c F3D1     		bne	.L30
 813              	.LVL89:
 814              		.loc 1 1232 8 view .LVU203
 815              	.LBE70:
 816              	.LBE73:
1065:Src/bno055/bno055.c ****     return BNO_OK;
 817              		.loc 1 1065 5 is_stmt 1 view .LVU204
1065:Src/bno055/bno055.c ****     return BNO_OK;
 818              		.loc 1 1065 44 is_stmt 0 view .LVU205
 819 003e BDF90C30 		ldrsh	r3, [sp, #12]
 820 0042 07EE903A 		vmov	s15, r3	@ int
 821 0046 FAEEC97A 		vcvt.f32.s32	s15, s15, #14
1065:Src/bno055/bno055.c ****     return BNO_OK;
 822              		.loc 1 1065 10 view .LVU206
 823 004a C4ED007A 		vstr.32	s15, [r4]
1066:Src/bno055/bno055.c **** }
 824              		.loc 1 1066 5 is_stmt 1 view .LVU207
1067:Src/bno055/bno055.c **** 
 825              		.loc 1 1067 1 is_stmt 0 view .LVU208
 826 004e 05B0     		add	sp, sp, #20
 827              	.LCFI29:
 828              		.cfi_def_cfa_offset 20
 829              		@ sp needed
 830 0050 F0BD     		pop	{r4, r5, r6, r7, pc}
1067:Src/bno055/bno055.c **** 
ARM GAS  /tmp/cc9CDFEk.s 			page 40


 831              		.loc 1 1067 1 view .LVU209
 832              		.cfi_endproc
 833              	.LFE161:
 835 0052 00BF     		.section	.text.bno055_quaternion_z,"ax",%progbits
 836              		.align	1
 837              		.p2align 2,,3
 838              		.global	bno055_quaternion_z
 839              		.syntax unified
 840              		.thumb
 841              		.thumb_func
 842              		.fpu fpv4-sp-d16
 844              	bno055_quaternion_z:
 845              	.LVL90:
 846              	.LFB162:
1086:Src/bno055/bno055.c ****     error_bno err;
 847              		.loc 1 1086 56 is_stmt 1 view -0
 848              		.cfi_startproc
 849              		@ args = 0, pretend = 0, frame = 8
 850              		@ frame_needed = 0, uses_anonymous_args = 0
1087:Src/bno055/bno055.c **** #ifdef BNO_AUTO_PAGE_SET
 851              		.loc 1 1087 5 view .LVU211
1093:Src/bno055/bno055.c ****     if ((err = bno055_read_regs(*imu, BNO_QUA_DATA_Z_LSB, data, 2)) != BNO_OK) {
 852              		.loc 1 1093 5 view .LVU212
1094:Src/bno055/bno055.c ****         return err;
 853              		.loc 1 1094 5 view .LVU213
1086:Src/bno055/bno055.c ****     error_bno err;
 854              		.loc 1 1086 56 is_stmt 0 view .LVU214
 855 0000 F0B5     		push	{r4, r5, r6, r7, lr}
 856              	.LCFI30:
 857              		.cfi_def_cfa_offset 20
 858              		.cfi_offset 4, -20
 859              		.cfi_offset 5, -16
 860              		.cfi_offset 6, -12
 861              		.cfi_offset 7, -8
 862              		.cfi_offset 14, -4
 863 0002 0568     		ldr	r5, [r0]
 864              	.LVL91:
 865              	.LBB76:
 866              	.LBB77:
1226:Src/bno055/bno055.c ****     if (err != HAL_OK) {
 867              		.loc 1 1226 11 view .LVU215
 868 0004 8679     		ldrb	r6, [r0, #6]	@ zero_extendqisi2
 869              	.LBE77:
 870              	.LBE76:
1086:Src/bno055/bno055.c ****     error_bno err;
 871              		.loc 1 1086 56 view .LVU216
 872 0006 85B0     		sub	sp, sp, #20
 873              	.LCFI31:
 874              		.cfi_def_cfa_offset 40
 875 0008 2623     		movs	r3, #38
 876              	.LBB81:
 877              	.LBB78:
1226:Src/bno055/bno055.c ****     if (err != HAL_OK) {
 878              		.loc 1 1226 11 view .LVU217
 879 000a 4FF0FF37 		mov	r7, #-1
 880              	.LBE78:
 881              	.LBE81:
ARM GAS  /tmp/cc9CDFEk.s 			page 41


1086:Src/bno055/bno055.c ****     error_bno err;
 882              		.loc 1 1086 56 view .LVU218
 883 000e 0C46     		mov	r4, r1
 884 0010 8DF80B30 		strb	r3, [sp, #11]
 885              	.LVL92:
 886              	.LBB82:
 887              	.LBI76:
1220:Src/bno055/bno055.c ****                            uint32_t buf_size) {
 888              		.loc 1 1220 11 is_stmt 1 view .LVU219
 889              	.LBB79:
1222:Src/bno055/bno055.c ****     // err = HAL_I2C_Mem_Read(imu.i2c, imu.addr, addr, I2C_MEMADD_SIZE_8BIT,
 890              		.loc 1 1222 5 view .LVU220
1226:Src/bno055/bno055.c ****     if (err != HAL_OK) {
 891              		.loc 1 1226 5 view .LVU221
1226:Src/bno055/bno055.c ****     if (err != HAL_OK) {
 892              		.loc 1 1226 11 is_stmt 0 view .LVU222
 893 0014 0097     		str	r7, [sp]
 894              	.LVL93:
1226:Src/bno055/bno055.c ****     if (err != HAL_OK) {
 895              		.loc 1 1226 11 view .LVU223
 896 0016 0123     		movs	r3, #1
 897              	.LVL94:
1226:Src/bno055/bno055.c ****     if (err != HAL_OK) {
 898              		.loc 1 1226 11 view .LVU224
 899 0018 0DF10B02 		add	r2, sp, #11
 900              	.LVL95:
1226:Src/bno055/bno055.c ****     if (err != HAL_OK) {
 901              		.loc 1 1226 11 view .LVU225
 902 001c 3146     		mov	r1, r6
 903              	.LVL96:
1226:Src/bno055/bno055.c ****     if (err != HAL_OK) {
 904              		.loc 1 1226 11 view .LVU226
 905 001e 2846     		mov	r0, r5
 906              	.LVL97:
1226:Src/bno055/bno055.c ****     if (err != HAL_OK) {
 907              		.loc 1 1226 11 view .LVU227
 908 0020 FFF7FEFF 		bl	HAL_I2C_Master_Transmit
 909              	.LVL98:
1227:Src/bno055/bno055.c ****         return BNO_ERR_I2C;
 910              		.loc 1 1227 5 is_stmt 1 view .LVU228
1227:Src/bno055/bno055.c ****         return BNO_ERR_I2C;
 911              		.loc 1 1227 8 is_stmt 0 view .LVU229
 912 0024 10B1     		cbz	r0, .L33
 913              	.L35:
 914              	.LVL99:
1228:Src/bno055/bno055.c ****     }
 915              		.loc 1 1228 16 view .LVU230
 916 0026 0120     		movs	r0, #1
 917              	.LBE79:
 918              	.LBE82:
1099:Src/bno055/bno055.c **** 
 919              		.loc 1 1099 1 view .LVU231
 920 0028 05B0     		add	sp, sp, #20
 921              	.LCFI32:
 922              		.cfi_remember_state
 923              		.cfi_def_cfa_offset 20
 924              		@ sp needed
ARM GAS  /tmp/cc9CDFEk.s 			page 42


 925 002a F0BD     		pop	{r4, r5, r6, r7, pc}
 926              	.LVL100:
 927              	.L33:
 928              	.LCFI33:
 929              		.cfi_restore_state
 930              	.LBB83:
 931              	.LBB80:
1230:Src/bno055/bno055.c ****         HAL_I2C_Master_Receive(imu.i2c, imu.addr, buf, buf_size, HAL_MAX_DELAY);
 932              		.loc 1 1230 5 is_stmt 1 view .LVU232
1231:Src/bno055/bno055.c ****     if (err != HAL_OK) {
 933              		.loc 1 1231 9 is_stmt 0 view .LVU233
 934 002c 0097     		str	r7, [sp]
 935 002e 0223     		movs	r3, #2
 936 0030 03AA     		add	r2, sp, #12
 937              	.LVL101:
1231:Src/bno055/bno055.c ****     if (err != HAL_OK) {
 938              		.loc 1 1231 9 view .LVU234
 939 0032 3146     		mov	r1, r6
 940 0034 2846     		mov	r0, r5
 941              	.LVL102:
1231:Src/bno055/bno055.c ****     if (err != HAL_OK) {
 942              		.loc 1 1231 9 view .LVU235
 943 0036 FFF7FEFF 		bl	HAL_I2C_Master_Receive
 944              	.LVL103:
 945              		.loc 1 1232 5 is_stmt 1 view .LVU236
 946              		.loc 1 1232 8 is_stmt 0 view .LVU237
 947 003a 0028     		cmp	r0, #0
 948 003c F3D1     		bne	.L35
 949              	.LVL104:
 950              		.loc 1 1232 8 view .LVU238
 951              	.LBE80:
 952              	.LBE83:
1097:Src/bno055/bno055.c ****     return BNO_OK;
 953              		.loc 1 1097 5 is_stmt 1 view .LVU239
1097:Src/bno055/bno055.c ****     return BNO_OK;
 954              		.loc 1 1097 44 is_stmt 0 view .LVU240
 955 003e BDF90C30 		ldrsh	r3, [sp, #12]
 956 0042 07EE903A 		vmov	s15, r3	@ int
 957 0046 FAEEC97A 		vcvt.f32.s32	s15, s15, #14
1097:Src/bno055/bno055.c ****     return BNO_OK;
 958              		.loc 1 1097 10 view .LVU241
 959 004a C4ED007A 		vstr.32	s15, [r4]
1098:Src/bno055/bno055.c **** }
 960              		.loc 1 1098 5 is_stmt 1 view .LVU242
1099:Src/bno055/bno055.c **** 
 961              		.loc 1 1099 1 is_stmt 0 view .LVU243
 962 004e 05B0     		add	sp, sp, #20
 963              	.LCFI34:
 964              		.cfi_def_cfa_offset 20
 965              		@ sp needed
 966 0050 F0BD     		pop	{r4, r5, r6, r7, pc}
1099:Src/bno055/bno055.c **** 
 967              		.loc 1 1099 1 view .LVU244
 968              		.cfi_endproc
 969              	.LFE162:
 971 0052 00BF     		.section	.text.bno055_temperature,"ax",%progbits
 972              		.align	1
ARM GAS  /tmp/cc9CDFEk.s 			page 43


 973              		.p2align 2,,3
 974              		.global	bno055_temperature
 975              		.syntax unified
 976              		.thumb
 977              		.thumb_func
 978              		.fpu fpv4-sp-d16
 980              	bno055_temperature:
 981              	.LVL105:
 982              	.LFB134:
 109:Src/bno055/bno055.c ****     error_bno err;
 983              		.loc 1 109 54 is_stmt 1 view -0
 984              		.cfi_startproc
 985              		@ args = 0, pretend = 0, frame = 16
 986              		@ frame_needed = 0, uses_anonymous_args = 0
 110:Src/bno055/bno055.c **** #ifdef BNO_AUTO_PAGE_SET
 987              		.loc 1 110 5 view .LVU246
 116:Src/bno055/bno055.c ****     if ((err = bno055_read_regs(*imu, BNO_TEMP, &data, 1)) != BNO_OK) {
 988              		.loc 1 116 5 view .LVU247
 109:Src/bno055/bno055.c ****     error_bno err;
 989              		.loc 1 109 54 is_stmt 0 view .LVU248
 990 0000 F0B5     		push	{r4, r5, r6, r7, lr}
 991              	.LCFI35:
 992              		.cfi_def_cfa_offset 20
 993              		.cfi_offset 4, -20
 994              		.cfi_offset 5, -16
 995              		.cfi_offset 6, -12
 996              		.cfi_offset 7, -8
 997              		.cfi_offset 14, -4
 998 0002 87B0     		sub	sp, sp, #28
 999              	.LCFI36:
 1000              		.cfi_def_cfa_offset 48
 1001 0004 0668     		ldr	r6, [r0]
 116:Src/bno055/bno055.c ****     if ((err = bno055_read_regs(*imu, BNO_TEMP, &data, 1)) != BNO_OK) {
 1002              		.loc 1 116 8 view .LVU249
 1003 0006 0023     		movs	r3, #0
 1004              	.LBB86:
 1005              	.LBB87:
1226:Src/bno055/bno055.c ****     if (err != HAL_OK) {
 1006              		.loc 1 1226 11 view .LVU250
 1007 0008 4FF0FF37 		mov	r7, #-1
 1008 000c 0097     		str	r7, [sp]
 1009              	.LBE87:
 1010              	.LBE86:
 116:Src/bno055/bno055.c ****     if ((err = bno055_read_regs(*imu, BNO_TEMP, &data, 1)) != BNO_OK) {
 1011              		.loc 1 116 8 view .LVU251
 1012 000e 8DF81630 		strb	r3, [sp, #22]
 117:Src/bno055/bno055.c ****         return err;
 1013              		.loc 1 117 5 is_stmt 1 view .LVU252
 1014              	.LVL106:
 117:Src/bno055/bno055.c ****         return err;
 1015              		.loc 1 117 5 is_stmt 0 view .LVU253
 1016 0012 3423     		movs	r3, #52
 1017 0014 8DF81730 		strb	r3, [sp, #23]
 1018              	.LVL107:
 1019              	.LBB91:
 1020              	.LBI86:
1220:Src/bno055/bno055.c ****                            uint32_t buf_size) {
ARM GAS  /tmp/cc9CDFEk.s 			page 44


 1021              		.loc 1 1220 11 is_stmt 1 view .LVU254
 1022              	.LBB88:
1222:Src/bno055/bno055.c ****     // err = HAL_I2C_Mem_Read(imu.i2c, imu.addr, addr, I2C_MEMADD_SIZE_8BIT,
 1023              		.loc 1 1222 5 view .LVU255
1226:Src/bno055/bno055.c ****     if (err != HAL_OK) {
 1024              		.loc 1 1226 5 view .LVU256
 1025              	.LBE88:
 1026              	.LBE91:
 109:Src/bno055/bno055.c ****     error_bno err;
 1027              		.loc 1 109 54 is_stmt 0 view .LVU257
 1028 0018 0446     		mov	r4, r0
 1029 001a 0D46     		mov	r5, r1
 1030              	.LBB92:
 1031              	.LBB89:
1226:Src/bno055/bno055.c ****     if (err != HAL_OK) {
 1032              		.loc 1 1226 11 view .LVU258
 1033 001c 0123     		movs	r3, #1
 1034              	.LVL108:
1226:Src/bno055/bno055.c ****     if (err != HAL_OK) {
 1035              		.loc 1 1226 11 view .LVU259
 1036 001e 8179     		ldrb	r1, [r0, #6]	@ zero_extendqisi2
 1037              	.LVL109:
1226:Src/bno055/bno055.c ****     if (err != HAL_OK) {
 1038              		.loc 1 1226 11 view .LVU260
 1039 0020 0391     		str	r1, [sp, #12]
 1040 0022 0DF11702 		add	r2, sp, #23
 1041              	.LVL110:
1226:Src/bno055/bno055.c ****     if (err != HAL_OK) {
 1042              		.loc 1 1226 11 view .LVU261
 1043 0026 3046     		mov	r0, r6
 1044              	.LVL111:
1226:Src/bno055/bno055.c ****     if (err != HAL_OK) {
 1045              		.loc 1 1226 11 view .LVU262
 1046 0028 FFF7FEFF 		bl	HAL_I2C_Master_Transmit
 1047              	.LVL112:
1227:Src/bno055/bno055.c ****         return BNO_ERR_I2C;
 1048              		.loc 1 1227 5 is_stmt 1 view .LVU263
1227:Src/bno055/bno055.c ****         return BNO_ERR_I2C;
 1049              		.loc 1 1227 8 is_stmt 0 view .LVU264
 1050 002c 0399     		ldr	r1, [sp, #12]
 1051 002e 10B1     		cbz	r0, .L38
 1052              	.L40:
 1053              	.LVL113:
1228:Src/bno055/bno055.c ****     }
 1054              		.loc 1 1228 16 view .LVU265
 1055 0030 0120     		movs	r0, #1
 1056              	.LBE89:
 1057              	.LBE92:
 122:Src/bno055/bno055.c **** 
 1058              		.loc 1 122 1 view .LVU266
 1059 0032 07B0     		add	sp, sp, #28
 1060              	.LCFI37:
 1061              		.cfi_remember_state
 1062              		.cfi_def_cfa_offset 20
 1063              		@ sp needed
 1064 0034 F0BD     		pop	{r4, r5, r6, r7, pc}
 1065              	.LVL114:
ARM GAS  /tmp/cc9CDFEk.s 			page 45


 1066              	.L38:
 1067              	.LCFI38:
 1068              		.cfi_restore_state
 1069              	.LBB93:
 1070              	.LBB90:
1230:Src/bno055/bno055.c ****         HAL_I2C_Master_Receive(imu.i2c, imu.addr, buf, buf_size, HAL_MAX_DELAY);
 1071              		.loc 1 1230 5 is_stmt 1 view .LVU267
1231:Src/bno055/bno055.c ****     if (err != HAL_OK) {
 1072              		.loc 1 1231 9 is_stmt 0 view .LVU268
 1073 0036 0097     		str	r7, [sp]
 1074 0038 0123     		movs	r3, #1
 1075 003a 3046     		mov	r0, r6
 1076              	.LVL115:
1231:Src/bno055/bno055.c ****     if (err != HAL_OK) {
 1077              		.loc 1 1231 9 view .LVU269
 1078 003c 0DF11602 		add	r2, sp, #22
 1079              	.LVL116:
1231:Src/bno055/bno055.c ****     if (err != HAL_OK) {
 1080              		.loc 1 1231 9 view .LVU270
 1081 0040 FFF7FEFF 		bl	HAL_I2C_Master_Receive
 1082              	.LVL117:
 1083              		.loc 1 1232 5 is_stmt 1 view .LVU271
 1084              		.loc 1 1232 8 is_stmt 0 view .LVU272
 1085 0044 0028     		cmp	r0, #0
 1086 0046 F3D1     		bne	.L40
 1087              	.LVL118:
 1088              		.loc 1 1232 8 view .LVU273
 1089              	.LBE90:
 1090              	.LBE93:
 120:Src/bno055/bno055.c ****     return BNO_OK;
 1091              		.loc 1 120 5 is_stmt 1 view .LVU274
 120:Src/bno055/bno055.c ****     return BNO_OK;
 1092              		.loc 1 120 10 is_stmt 0 view .LVU275
 1093 0048 E37B     		ldrb	r3, [r4, #15]	@ zero_extendqisi2
 1094 004a 33B1     		cbz	r3, .L41
 120:Src/bno055/bno055.c ****     return BNO_OK;
 1095              		.loc 1 120 10 discriminator 1 view .LVU276
 1096 004c 9DF81630 		ldrb	r3, [sp, #22]	@ zero_extendqisi2
 1097 0050 5B00     		lsls	r3, r3, #1
 1098 0052 5BB2     		sxtb	r3, r3
 1099 0054 2B70     		strb	r3, [r5]
 121:Src/bno055/bno055.c **** }
 1100              		.loc 1 121 5 is_stmt 1 discriminator 1 view .LVU277
 1101              	.L44:
 122:Src/bno055/bno055.c **** 
 1102              		.loc 1 122 1 is_stmt 0 view .LVU278
 1103 0056 07B0     		add	sp, sp, #28
 1104              	.LCFI39:
 1105              		.cfi_remember_state
 1106              		.cfi_def_cfa_offset 20
 1107              		@ sp needed
 1108 0058 F0BD     		pop	{r4, r5, r6, r7, pc}
 1109              	.LVL119:
 1110              	.L41:
 1111              	.LCFI40:
 1112              		.cfi_restore_state
 120:Src/bno055/bno055.c ****     return BNO_OK;
ARM GAS  /tmp/cc9CDFEk.s 			page 46


 1113              		.loc 1 120 10 discriminator 2 view .LVU279
 1114 005a 9DF91630 		ldrsb	r3, [sp, #22]
 1115 005e 2B70     		strb	r3, [r5]
 121:Src/bno055/bno055.c **** }
 1116              		.loc 1 121 5 is_stmt 1 discriminator 2 view .LVU280
 1117 0060 F9E7     		b	.L44
 1118              		.cfi_endproc
 1119              	.LFE134:
 1121 0062 00BF     		.section	.text.bno055_acc_x,"ax",%progbits
 1122              		.align	1
 1123              		.p2align 2,,3
 1124              		.global	bno055_acc_x
 1125              		.syntax unified
 1126              		.thumb
 1127              		.thumb_func
 1128              		.fpu fpv4-sp-d16
 1130              	bno055_acc_x:
 1131              	.LVL120:
 1132              	.LFB135:
 141:Src/bno055/bno055.c ****     error_bno err;
 1133              		.loc 1 141 49 view -0
 1134              		.cfi_startproc
 1135              		@ args = 0, pretend = 0, frame = 16
 1136              		@ frame_needed = 0, uses_anonymous_args = 0
 142:Src/bno055/bno055.c **** #ifdef BNO_AUTO_PAGE_SET
 1137              		.loc 1 142 5 view .LVU282
 148:Src/bno055/bno055.c ****     if ((err = bno055_read_regs(*imu, BNO_ACC_DATA_X_LSB, data, 2)) != BNO_OK) {
 1138              		.loc 1 148 5 view .LVU283
 149:Src/bno055/bno055.c ****         return err;
 1139              		.loc 1 149 5 view .LVU284
 141:Src/bno055/bno055.c ****     error_bno err;
 1140              		.loc 1 141 49 is_stmt 0 view .LVU285
 1141 0000 F0B5     		push	{r4, r5, r6, r7, lr}
 1142              	.LCFI41:
 1143              		.cfi_def_cfa_offset 20
 1144              		.cfi_offset 4, -20
 1145              		.cfi_offset 5, -16
 1146              		.cfi_offset 6, -12
 1147              		.cfi_offset 7, -8
 1148              		.cfi_offset 14, -4
 1149 0002 87B0     		sub	sp, sp, #28
 1150              	.LCFI42:
 1151              		.cfi_def_cfa_offset 48
 1152 0004 0668     		ldr	r6, [r0]
 1153              	.LVL121:
 1154              	.LBB96:
 1155              	.LBB97:
1226:Src/bno055/bno055.c ****     if (err != HAL_OK) {
 1156              		.loc 1 1226 11 view .LVU286
 1157 0006 4FF0FF37 		mov	r7, #-1
 1158 000a 0823     		movs	r3, #8
 1159 000c 0097     		str	r7, [sp]
 1160              	.LVL122:
1226:Src/bno055/bno055.c ****     if (err != HAL_OK) {
 1161              		.loc 1 1226 11 view .LVU287
 1162 000e 8DF81330 		strb	r3, [sp, #19]
 1163              	.LVL123:
ARM GAS  /tmp/cc9CDFEk.s 			page 47


1226:Src/bno055/bno055.c ****     if (err != HAL_OK) {
 1164              		.loc 1 1226 11 view .LVU288
 1165              	.LBE97:
 1166              	.LBI96:
1220:Src/bno055/bno055.c ****                            uint32_t buf_size) {
 1167              		.loc 1 1220 11 is_stmt 1 view .LVU289
 1168              	.LBB98:
1222:Src/bno055/bno055.c ****     // err = HAL_I2C_Mem_Read(imu.i2c, imu.addr, addr, I2C_MEMADD_SIZE_8BIT,
 1169              		.loc 1 1222 5 view .LVU290
1226:Src/bno055/bno055.c ****     if (err != HAL_OK) {
 1170              		.loc 1 1226 5 view .LVU291
 1171              	.LBE98:
 1172              	.LBE96:
 141:Src/bno055/bno055.c ****     error_bno err;
 1173              		.loc 1 141 49 is_stmt 0 view .LVU292
 1174 0012 0446     		mov	r4, r0
 1175 0014 0D46     		mov	r5, r1
 1176              	.LBB101:
 1177              	.LBB99:
1226:Src/bno055/bno055.c ****     if (err != HAL_OK) {
 1178              		.loc 1 1226 11 view .LVU293
 1179 0016 0123     		movs	r3, #1
 1180              	.LVL124:
1226:Src/bno055/bno055.c ****     if (err != HAL_OK) {
 1181              		.loc 1 1226 11 view .LVU294
 1182 0018 8179     		ldrb	r1, [r0, #6]	@ zero_extendqisi2
 1183              	.LVL125:
1226:Src/bno055/bno055.c ****     if (err != HAL_OK) {
 1184              		.loc 1 1226 11 view .LVU295
 1185 001a 0391     		str	r1, [sp, #12]
 1186 001c 0DF11302 		add	r2, sp, #19
 1187              	.LVL126:
1226:Src/bno055/bno055.c ****     if (err != HAL_OK) {
 1188              		.loc 1 1226 11 view .LVU296
 1189 0020 3046     		mov	r0, r6
 1190              	.LVL127:
1226:Src/bno055/bno055.c ****     if (err != HAL_OK) {
 1191              		.loc 1 1226 11 view .LVU297
 1192 0022 FFF7FEFF 		bl	HAL_I2C_Master_Transmit
 1193              	.LVL128:
1227:Src/bno055/bno055.c ****         return BNO_ERR_I2C;
 1194              		.loc 1 1227 5 is_stmt 1 view .LVU298
1227:Src/bno055/bno055.c ****         return BNO_ERR_I2C;
 1195              		.loc 1 1227 8 is_stmt 0 view .LVU299
 1196 0026 0399     		ldr	r1, [sp, #12]
 1197 0028 10B1     		cbz	r0, .L46
 1198              	.L48:
 1199              	.LVL129:
1228:Src/bno055/bno055.c ****     }
 1200              		.loc 1 1228 16 view .LVU300
 1201 002a 0120     		movs	r0, #1
 1202              	.LBE99:
 1203              	.LBE101:
 157:Src/bno055/bno055.c **** 
 1204              		.loc 1 157 1 view .LVU301
 1205 002c 07B0     		add	sp, sp, #28
 1206              	.LCFI43:
ARM GAS  /tmp/cc9CDFEk.s 			page 48


 1207              		.cfi_remember_state
 1208              		.cfi_def_cfa_offset 20
 1209              		@ sp needed
 1210 002e F0BD     		pop	{r4, r5, r6, r7, pc}
 1211              	.LVL130:
 1212              	.L46:
 1213              	.LCFI44:
 1214              		.cfi_restore_state
 1215              	.LBB102:
 1216              	.LBB100:
1230:Src/bno055/bno055.c ****         HAL_I2C_Master_Receive(imu.i2c, imu.addr, buf, buf_size, HAL_MAX_DELAY);
 1217              		.loc 1 1230 5 is_stmt 1 view .LVU302
1231:Src/bno055/bno055.c ****     if (err != HAL_OK) {
 1218              		.loc 1 1231 9 is_stmt 0 view .LVU303
 1219 0030 0097     		str	r7, [sp]
 1220 0032 0223     		movs	r3, #2
 1221 0034 3046     		mov	r0, r6
 1222              	.LVL131:
1231:Src/bno055/bno055.c ****     if (err != HAL_OK) {
 1223              		.loc 1 1231 9 view .LVU304
 1224 0036 05AA     		add	r2, sp, #20
 1225              	.LVL132:
1231:Src/bno055/bno055.c ****     if (err != HAL_OK) {
 1226              		.loc 1 1231 9 view .LVU305
 1227 0038 FFF7FEFF 		bl	HAL_I2C_Master_Receive
 1228              	.LVL133:
 1229              		.loc 1 1232 5 is_stmt 1 view .LVU306
 1230              		.loc 1 1232 8 is_stmt 0 view .LVU307
 1231 003c 0028     		cmp	r0, #0
 1232 003e F4D1     		bne	.L48
 1233              	.LVL134:
 1234              		.loc 1 1232 8 view .LVU308
 1235              	.LBE100:
 1236              	.LBE102:
 153:Src/bno055/bno055.c ****            ((imu->_acc_unit == BNO_ACC_UNITSEL_M_S2) ? BNO_ACC_SCALE_M_2
 1237              		.loc 1 153 5 is_stmt 1 view .LVU309
 153:Src/bno055/bno055.c ****            ((imu->_acc_unit == BNO_ACC_UNITSEL_M_S2) ? BNO_ACC_SCALE_M_2
 1238              		.loc 1 153 44 is_stmt 0 view .LVU310
 1239 0040 BDF91430 		ldrsh	r3, [sp, #20]
 1240 0044 07EE903A 		vmov	s15, r3	@ int
 155:Src/bno055/bno055.c ****     return BNO_OK;
 1241              		.loc 1 155 54 view .LVU311
 1242 0048 A37B     		ldrb	r3, [r4, #14]	@ zero_extendqisi2
 153:Src/bno055/bno055.c ****            ((imu->_acc_unit == BNO_ACC_UNITSEL_M_S2) ? BNO_ACC_SCALE_M_2
 1243              		.loc 1 153 44 view .LVU312
 1244 004a F8EEE77A 		vcvt.f32.s32	s15, s15
 155:Src/bno055/bno055.c ****     return BNO_OK;
 1245              		.loc 1 155 54 view .LVU313
 1246 004e 1BB9     		cbnz	r3, .L49
 153:Src/bno055/bno055.c ****            ((imu->_acc_unit == BNO_ACC_UNITSEL_M_S2) ? BNO_ACC_SCALE_M_2
 1247              		.loc 1 153 44 view .LVU314
 1248 0050 9FED037A 		vldr.32	s14, .L51
 1249 0054 C7EE877A 		vdiv.f32	s15, s15, s14
 1250              	.L49:
 153:Src/bno055/bno055.c ****            ((imu->_acc_unit == BNO_ACC_UNITSEL_M_S2) ? BNO_ACC_SCALE_M_2
 1251              		.loc 1 153 10 view .LVU315
 1252 0058 C5ED007A 		vstr.32	s15, [r5]
ARM GAS  /tmp/cc9CDFEk.s 			page 49


 156:Src/bno055/bno055.c **** };
 1253              		.loc 1 156 5 is_stmt 1 view .LVU316
 157:Src/bno055/bno055.c **** 
 1254              		.loc 1 157 1 is_stmt 0 view .LVU317
 1255 005c 07B0     		add	sp, sp, #28
 1256              	.LCFI45:
 1257              		.cfi_def_cfa_offset 20
 1258              		@ sp needed
 1259 005e F0BD     		pop	{r4, r5, r6, r7, pc}
 1260              	.LVL135:
 1261              	.L52:
 157:Src/bno055/bno055.c **** 
 1262              		.loc 1 157 1 view .LVU318
 1263              		.align	2
 1264              	.L51:
 1265 0060 0000C842 		.word	1120403456
 1266              		.cfi_endproc
 1267              	.LFE135:
 1269              		.section	.text.bno055_acc_y,"ax",%progbits
 1270              		.align	1
 1271              		.p2align 2,,3
 1272              		.global	bno055_acc_y
 1273              		.syntax unified
 1274              		.thumb
 1275              		.thumb_func
 1276              		.fpu fpv4-sp-d16
 1278              	bno055_acc_y:
 1279              	.LVL136:
 1280              	.LFB136:
 176:Src/bno055/bno055.c ****     error_bno err;
 1281              		.loc 1 176 49 is_stmt 1 view -0
 1282              		.cfi_startproc
 1283              		@ args = 0, pretend = 0, frame = 16
 1284              		@ frame_needed = 0, uses_anonymous_args = 0
 177:Src/bno055/bno055.c **** #ifdef BNO_AUTO_PAGE_SET
 1285              		.loc 1 177 5 view .LVU320
 183:Src/bno055/bno055.c ****     if ((err = bno055_read_regs(*imu, BNO_ACC_DATA_Y_LSB, data, 2)) != BNO_OK) {
 1286              		.loc 1 183 5 view .LVU321
 184:Src/bno055/bno055.c ****         return err;
 1287              		.loc 1 184 5 view .LVU322
 176:Src/bno055/bno055.c ****     error_bno err;
 1288              		.loc 1 176 49 is_stmt 0 view .LVU323
 1289 0000 F0B5     		push	{r4, r5, r6, r7, lr}
 1290              	.LCFI46:
 1291              		.cfi_def_cfa_offset 20
 1292              		.cfi_offset 4, -20
 1293              		.cfi_offset 5, -16
 1294              		.cfi_offset 6, -12
 1295              		.cfi_offset 7, -8
 1296              		.cfi_offset 14, -4
 1297 0002 87B0     		sub	sp, sp, #28
 1298              	.LCFI47:
 1299              		.cfi_def_cfa_offset 48
 1300 0004 0668     		ldr	r6, [r0]
 1301              	.LVL137:
 1302              	.LBB105:
 1303              	.LBB106:
ARM GAS  /tmp/cc9CDFEk.s 			page 50


1226:Src/bno055/bno055.c ****     if (err != HAL_OK) {
 1304              		.loc 1 1226 11 view .LVU324
 1305 0006 4FF0FF37 		mov	r7, #-1
 1306 000a 0A23     		movs	r3, #10
 1307 000c 0097     		str	r7, [sp]
 1308              	.LVL138:
1226:Src/bno055/bno055.c ****     if (err != HAL_OK) {
 1309              		.loc 1 1226 11 view .LVU325
 1310 000e 8DF81330 		strb	r3, [sp, #19]
 1311              	.LVL139:
1226:Src/bno055/bno055.c ****     if (err != HAL_OK) {
 1312              		.loc 1 1226 11 view .LVU326
 1313              	.LBE106:
 1314              	.LBI105:
1220:Src/bno055/bno055.c ****                            uint32_t buf_size) {
 1315              		.loc 1 1220 11 is_stmt 1 view .LVU327
 1316              	.LBB107:
1222:Src/bno055/bno055.c ****     // err = HAL_I2C_Mem_Read(imu.i2c, imu.addr, addr, I2C_MEMADD_SIZE_8BIT,
 1317              		.loc 1 1222 5 view .LVU328
1226:Src/bno055/bno055.c ****     if (err != HAL_OK) {
 1318              		.loc 1 1226 5 view .LVU329
 1319              	.LBE107:
 1320              	.LBE105:
 176:Src/bno055/bno055.c ****     error_bno err;
 1321              		.loc 1 176 49 is_stmt 0 view .LVU330
 1322 0012 0446     		mov	r4, r0
 1323 0014 0D46     		mov	r5, r1
 1324              	.LBB110:
 1325              	.LBB108:
1226:Src/bno055/bno055.c ****     if (err != HAL_OK) {
 1326              		.loc 1 1226 11 view .LVU331
 1327 0016 0123     		movs	r3, #1
 1328              	.LVL140:
1226:Src/bno055/bno055.c ****     if (err != HAL_OK) {
 1329              		.loc 1 1226 11 view .LVU332
 1330 0018 8179     		ldrb	r1, [r0, #6]	@ zero_extendqisi2
 1331              	.LVL141:
1226:Src/bno055/bno055.c ****     if (err != HAL_OK) {
 1332              		.loc 1 1226 11 view .LVU333
 1333 001a 0391     		str	r1, [sp, #12]
 1334 001c 0DF11302 		add	r2, sp, #19
 1335              	.LVL142:
1226:Src/bno055/bno055.c ****     if (err != HAL_OK) {
 1336              		.loc 1 1226 11 view .LVU334
 1337 0020 3046     		mov	r0, r6
 1338              	.LVL143:
1226:Src/bno055/bno055.c ****     if (err != HAL_OK) {
 1339              		.loc 1 1226 11 view .LVU335
 1340 0022 FFF7FEFF 		bl	HAL_I2C_Master_Transmit
 1341              	.LVL144:
1227:Src/bno055/bno055.c ****         return BNO_ERR_I2C;
 1342              		.loc 1 1227 5 is_stmt 1 view .LVU336
1227:Src/bno055/bno055.c ****         return BNO_ERR_I2C;
 1343              		.loc 1 1227 8 is_stmt 0 view .LVU337
 1344 0026 0399     		ldr	r1, [sp, #12]
 1345 0028 10B1     		cbz	r0, .L54
 1346              	.L56:
ARM GAS  /tmp/cc9CDFEk.s 			page 51


 1347              	.LVL145:
1228:Src/bno055/bno055.c ****     }
 1348              		.loc 1 1228 16 view .LVU338
 1349 002a 0120     		movs	r0, #1
 1350              	.LBE108:
 1351              	.LBE110:
 192:Src/bno055/bno055.c **** 
 1352              		.loc 1 192 1 view .LVU339
 1353 002c 07B0     		add	sp, sp, #28
 1354              	.LCFI48:
 1355              		.cfi_remember_state
 1356              		.cfi_def_cfa_offset 20
 1357              		@ sp needed
 1358 002e F0BD     		pop	{r4, r5, r6, r7, pc}
 1359              	.LVL146:
 1360              	.L54:
 1361              	.LCFI49:
 1362              		.cfi_restore_state
 1363              	.LBB111:
 1364              	.LBB109:
1230:Src/bno055/bno055.c ****         HAL_I2C_Master_Receive(imu.i2c, imu.addr, buf, buf_size, HAL_MAX_DELAY);
 1365              		.loc 1 1230 5 is_stmt 1 view .LVU340
1231:Src/bno055/bno055.c ****     if (err != HAL_OK) {
 1366              		.loc 1 1231 9 is_stmt 0 view .LVU341
 1367 0030 0097     		str	r7, [sp]
 1368 0032 0223     		movs	r3, #2
 1369 0034 3046     		mov	r0, r6
 1370              	.LVL147:
1231:Src/bno055/bno055.c ****     if (err != HAL_OK) {
 1371              		.loc 1 1231 9 view .LVU342
 1372 0036 05AA     		add	r2, sp, #20
 1373              	.LVL148:
1231:Src/bno055/bno055.c ****     if (err != HAL_OK) {
 1374              		.loc 1 1231 9 view .LVU343
 1375 0038 FFF7FEFF 		bl	HAL_I2C_Master_Receive
 1376              	.LVL149:
 1377              		.loc 1 1232 5 is_stmt 1 view .LVU344
 1378              		.loc 1 1232 8 is_stmt 0 view .LVU345
 1379 003c 0028     		cmp	r0, #0
 1380 003e F4D1     		bne	.L56
 1381              	.LVL150:
 1382              		.loc 1 1232 8 view .LVU346
 1383              	.LBE109:
 1384              	.LBE111:
 188:Src/bno055/bno055.c ****            ((imu->_acc_unit == BNO_ACC_UNITSEL_M_S2) ? BNO_ACC_SCALE_M_2
 1385              		.loc 1 188 5 is_stmt 1 view .LVU347
 188:Src/bno055/bno055.c ****            ((imu->_acc_unit == BNO_ACC_UNITSEL_M_S2) ? BNO_ACC_SCALE_M_2
 1386              		.loc 1 188 44 is_stmt 0 view .LVU348
 1387 0040 BDF91430 		ldrsh	r3, [sp, #20]
 1388 0044 07EE903A 		vmov	s15, r3	@ int
 190:Src/bno055/bno055.c ****     return BNO_OK;
 1389              		.loc 1 190 54 view .LVU349
 1390 0048 A37B     		ldrb	r3, [r4, #14]	@ zero_extendqisi2
 188:Src/bno055/bno055.c ****            ((imu->_acc_unit == BNO_ACC_UNITSEL_M_S2) ? BNO_ACC_SCALE_M_2
 1391              		.loc 1 188 44 view .LVU350
 1392 004a F8EEE77A 		vcvt.f32.s32	s15, s15
 190:Src/bno055/bno055.c ****     return BNO_OK;
ARM GAS  /tmp/cc9CDFEk.s 			page 52


 1393              		.loc 1 190 54 view .LVU351
 1394 004e 1BB9     		cbnz	r3, .L57
 188:Src/bno055/bno055.c ****            ((imu->_acc_unit == BNO_ACC_UNITSEL_M_S2) ? BNO_ACC_SCALE_M_2
 1395              		.loc 1 188 44 view .LVU352
 1396 0050 9FED037A 		vldr.32	s14, .L59
 1397 0054 C7EE877A 		vdiv.f32	s15, s15, s14
 1398              	.L57:
 188:Src/bno055/bno055.c ****            ((imu->_acc_unit == BNO_ACC_UNITSEL_M_S2) ? BNO_ACC_SCALE_M_2
 1399              		.loc 1 188 10 view .LVU353
 1400 0058 C5ED007A 		vstr.32	s15, [r5]
 191:Src/bno055/bno055.c **** };
 1401              		.loc 1 191 5 is_stmt 1 view .LVU354
 192:Src/bno055/bno055.c **** 
 1402              		.loc 1 192 1 is_stmt 0 view .LVU355
 1403 005c 07B0     		add	sp, sp, #28
 1404              	.LCFI50:
 1405              		.cfi_def_cfa_offset 20
 1406              		@ sp needed
 1407 005e F0BD     		pop	{r4, r5, r6, r7, pc}
 1408              	.LVL151:
 1409              	.L60:
 192:Src/bno055/bno055.c **** 
 1410              		.loc 1 192 1 view .LVU356
 1411              		.align	2
 1412              	.L59:
 1413 0060 0000C842 		.word	1120403456
 1414              		.cfi_endproc
 1415              	.LFE136:
 1417              		.section	.text.bno055_acc_z,"ax",%progbits
 1418              		.align	1
 1419              		.p2align 2,,3
 1420              		.global	bno055_acc_z
 1421              		.syntax unified
 1422              		.thumb
 1423              		.thumb_func
 1424              		.fpu fpv4-sp-d16
 1426              	bno055_acc_z:
 1427              	.LVL152:
 1428              	.LFB137:
 211:Src/bno055/bno055.c ****     error_bno err;
 1429              		.loc 1 211 49 is_stmt 1 view -0
 1430              		.cfi_startproc
 1431              		@ args = 0, pretend = 0, frame = 16
 1432              		@ frame_needed = 0, uses_anonymous_args = 0
 212:Src/bno055/bno055.c **** #ifdef BNO_AUTO_PAGE_SET
 1433              		.loc 1 212 5 view .LVU358
 218:Src/bno055/bno055.c ****     if ((err = bno055_read_regs(*imu, BNO_ACC_DATA_Z_LSB, data, 2)) != BNO_OK) {
 1434              		.loc 1 218 5 view .LVU359
 219:Src/bno055/bno055.c ****         return err;
 1435              		.loc 1 219 5 view .LVU360
 211:Src/bno055/bno055.c ****     error_bno err;
 1436              		.loc 1 211 49 is_stmt 0 view .LVU361
 1437 0000 F0B5     		push	{r4, r5, r6, r7, lr}
 1438              	.LCFI51:
 1439              		.cfi_def_cfa_offset 20
 1440              		.cfi_offset 4, -20
 1441              		.cfi_offset 5, -16
ARM GAS  /tmp/cc9CDFEk.s 			page 53


 1442              		.cfi_offset 6, -12
 1443              		.cfi_offset 7, -8
 1444              		.cfi_offset 14, -4
 1445 0002 87B0     		sub	sp, sp, #28
 1446              	.LCFI52:
 1447              		.cfi_def_cfa_offset 48
 1448 0004 0668     		ldr	r6, [r0]
 1449              	.LVL153:
 1450              	.LBB114:
 1451              	.LBB115:
1226:Src/bno055/bno055.c ****     if (err != HAL_OK) {
 1452              		.loc 1 1226 11 view .LVU362
 1453 0006 4FF0FF37 		mov	r7, #-1
 1454 000a 0C23     		movs	r3, #12
 1455 000c 0097     		str	r7, [sp]
 1456              	.LVL154:
1226:Src/bno055/bno055.c ****     if (err != HAL_OK) {
 1457              		.loc 1 1226 11 view .LVU363
 1458 000e 8DF81330 		strb	r3, [sp, #19]
 1459              	.LVL155:
1226:Src/bno055/bno055.c ****     if (err != HAL_OK) {
 1460              		.loc 1 1226 11 view .LVU364
 1461              	.LBE115:
 1462              	.LBI114:
1220:Src/bno055/bno055.c ****                            uint32_t buf_size) {
 1463              		.loc 1 1220 11 is_stmt 1 view .LVU365
 1464              	.LBB116:
1222:Src/bno055/bno055.c ****     // err = HAL_I2C_Mem_Read(imu.i2c, imu.addr, addr, I2C_MEMADD_SIZE_8BIT,
 1465              		.loc 1 1222 5 view .LVU366
1226:Src/bno055/bno055.c ****     if (err != HAL_OK) {
 1466              		.loc 1 1226 5 view .LVU367
 1467              	.LBE116:
 1468              	.LBE114:
 211:Src/bno055/bno055.c ****     error_bno err;
 1469              		.loc 1 211 49 is_stmt 0 view .LVU368
 1470 0012 0446     		mov	r4, r0
 1471 0014 0D46     		mov	r5, r1
 1472              	.LBB119:
 1473              	.LBB117:
1226:Src/bno055/bno055.c ****     if (err != HAL_OK) {
 1474              		.loc 1 1226 11 view .LVU369
 1475 0016 0123     		movs	r3, #1
 1476              	.LVL156:
1226:Src/bno055/bno055.c ****     if (err != HAL_OK) {
 1477              		.loc 1 1226 11 view .LVU370
 1478 0018 8179     		ldrb	r1, [r0, #6]	@ zero_extendqisi2
 1479              	.LVL157:
1226:Src/bno055/bno055.c ****     if (err != HAL_OK) {
 1480              		.loc 1 1226 11 view .LVU371
 1481 001a 0391     		str	r1, [sp, #12]
 1482 001c 0DF11302 		add	r2, sp, #19
 1483              	.LVL158:
1226:Src/bno055/bno055.c ****     if (err != HAL_OK) {
 1484              		.loc 1 1226 11 view .LVU372
 1485 0020 3046     		mov	r0, r6
 1486              	.LVL159:
1226:Src/bno055/bno055.c ****     if (err != HAL_OK) {
ARM GAS  /tmp/cc9CDFEk.s 			page 54


 1487              		.loc 1 1226 11 view .LVU373
 1488 0022 FFF7FEFF 		bl	HAL_I2C_Master_Transmit
 1489              	.LVL160:
1227:Src/bno055/bno055.c ****         return BNO_ERR_I2C;
 1490              		.loc 1 1227 5 is_stmt 1 view .LVU374
1227:Src/bno055/bno055.c ****         return BNO_ERR_I2C;
 1491              		.loc 1 1227 8 is_stmt 0 view .LVU375
 1492 0026 0399     		ldr	r1, [sp, #12]
 1493 0028 10B1     		cbz	r0, .L62
 1494              	.L64:
 1495              	.LVL161:
1228:Src/bno055/bno055.c ****     }
 1496              		.loc 1 1228 16 view .LVU376
 1497 002a 0120     		movs	r0, #1
 1498              	.LBE117:
 1499              	.LBE119:
 227:Src/bno055/bno055.c **** 
 1500              		.loc 1 227 1 view .LVU377
 1501 002c 07B0     		add	sp, sp, #28
 1502              	.LCFI53:
 1503              		.cfi_remember_state
 1504              		.cfi_def_cfa_offset 20
 1505              		@ sp needed
 1506 002e F0BD     		pop	{r4, r5, r6, r7, pc}
 1507              	.LVL162:
 1508              	.L62:
 1509              	.LCFI54:
 1510              		.cfi_restore_state
 1511              	.LBB120:
 1512              	.LBB118:
1230:Src/bno055/bno055.c ****         HAL_I2C_Master_Receive(imu.i2c, imu.addr, buf, buf_size, HAL_MAX_DELAY);
 1513              		.loc 1 1230 5 is_stmt 1 view .LVU378
1231:Src/bno055/bno055.c ****     if (err != HAL_OK) {
 1514              		.loc 1 1231 9 is_stmt 0 view .LVU379
 1515 0030 0097     		str	r7, [sp]
 1516 0032 0223     		movs	r3, #2
 1517 0034 3046     		mov	r0, r6
 1518              	.LVL163:
1231:Src/bno055/bno055.c ****     if (err != HAL_OK) {
 1519              		.loc 1 1231 9 view .LVU380
 1520 0036 05AA     		add	r2, sp, #20
 1521              	.LVL164:
1231:Src/bno055/bno055.c ****     if (err != HAL_OK) {
 1522              		.loc 1 1231 9 view .LVU381
 1523 0038 FFF7FEFF 		bl	HAL_I2C_Master_Receive
 1524              	.LVL165:
 1525              		.loc 1 1232 5 is_stmt 1 view .LVU382
 1526              		.loc 1 1232 8 is_stmt 0 view .LVU383
 1527 003c 0028     		cmp	r0, #0
 1528 003e F4D1     		bne	.L64
 1529              	.LVL166:
 1530              		.loc 1 1232 8 view .LVU384
 1531              	.LBE118:
 1532              	.LBE120:
 223:Src/bno055/bno055.c ****            ((imu->_acc_unit == BNO_ACC_UNITSEL_M_S2) ? BNO_ACC_SCALE_M_2
 1533              		.loc 1 223 5 is_stmt 1 view .LVU385
 223:Src/bno055/bno055.c ****            ((imu->_acc_unit == BNO_ACC_UNITSEL_M_S2) ? BNO_ACC_SCALE_M_2
ARM GAS  /tmp/cc9CDFEk.s 			page 55


 1534              		.loc 1 223 44 is_stmt 0 view .LVU386
 1535 0040 BDF91430 		ldrsh	r3, [sp, #20]
 1536 0044 07EE903A 		vmov	s15, r3	@ int
 225:Src/bno055/bno055.c ****     return BNO_OK;
 1537              		.loc 1 225 54 view .LVU387
 1538 0048 A37B     		ldrb	r3, [r4, #14]	@ zero_extendqisi2
 223:Src/bno055/bno055.c ****            ((imu->_acc_unit == BNO_ACC_UNITSEL_M_S2) ? BNO_ACC_SCALE_M_2
 1539              		.loc 1 223 44 view .LVU388
 1540 004a F8EEE77A 		vcvt.f32.s32	s15, s15
 225:Src/bno055/bno055.c ****     return BNO_OK;
 1541              		.loc 1 225 54 view .LVU389
 1542 004e 1BB9     		cbnz	r3, .L65
 223:Src/bno055/bno055.c ****            ((imu->_acc_unit == BNO_ACC_UNITSEL_M_S2) ? BNO_ACC_SCALE_M_2
 1543              		.loc 1 223 44 view .LVU390
 1544 0050 9FED037A 		vldr.32	s14, .L67
 1545 0054 C7EE877A 		vdiv.f32	s15, s15, s14
 1546              	.L65:
 223:Src/bno055/bno055.c ****            ((imu->_acc_unit == BNO_ACC_UNITSEL_M_S2) ? BNO_ACC_SCALE_M_2
 1547              		.loc 1 223 10 view .LVU391
 1548 0058 C5ED007A 		vstr.32	s15, [r5]
 226:Src/bno055/bno055.c **** };
 1549              		.loc 1 226 5 is_stmt 1 view .LVU392
 227:Src/bno055/bno055.c **** 
 1550              		.loc 1 227 1 is_stmt 0 view .LVU393
 1551 005c 07B0     		add	sp, sp, #28
 1552              	.LCFI55:
 1553              		.cfi_def_cfa_offset 20
 1554              		@ sp needed
 1555 005e F0BD     		pop	{r4, r5, r6, r7, pc}
 1556              	.LVL167:
 1557              	.L68:
 227:Src/bno055/bno055.c **** 
 1558              		.loc 1 227 1 view .LVU394
 1559              		.align	2
 1560              	.L67:
 1561 0060 0000C842 		.word	1120403456
 1562              		.cfi_endproc
 1563              	.LFE137:
 1565              		.section	.text.bno055_linear_acc_x,"ax",%progbits
 1566              		.align	1
 1567              		.p2align 2,,3
 1568              		.global	bno055_linear_acc_x
 1569              		.syntax unified
 1570              		.thumb
 1571              		.thumb_func
 1572              		.fpu fpv4-sp-d16
 1574              	bno055_linear_acc_x:
 1575              	.LVL168:
 1576              	.LFB139:
 284:Src/bno055/bno055.c ****     error_bno err;
 1577              		.loc 1 284 56 is_stmt 1 view -0
 1578              		.cfi_startproc
 1579              		@ args = 0, pretend = 0, frame = 16
 1580              		@ frame_needed = 0, uses_anonymous_args = 0
 285:Src/bno055/bno055.c **** #ifdef BNO_AUTO_PAGE_SET
 1581              		.loc 1 285 5 view .LVU396
 291:Src/bno055/bno055.c ****     if ((err = bno055_read_regs(*imu, BNO_LIA_DATA_X_LSB, data, 2)) != BNO_OK) {
ARM GAS  /tmp/cc9CDFEk.s 			page 56


 1582              		.loc 1 291 5 view .LVU397
 292:Src/bno055/bno055.c ****         return err;
 1583              		.loc 1 292 5 view .LVU398
 284:Src/bno055/bno055.c ****     error_bno err;
 1584              		.loc 1 284 56 is_stmt 0 view .LVU399
 1585 0000 F0B5     		push	{r4, r5, r6, r7, lr}
 1586              	.LCFI56:
 1587              		.cfi_def_cfa_offset 20
 1588              		.cfi_offset 4, -20
 1589              		.cfi_offset 5, -16
 1590              		.cfi_offset 6, -12
 1591              		.cfi_offset 7, -8
 1592              		.cfi_offset 14, -4
 1593 0002 87B0     		sub	sp, sp, #28
 1594              	.LCFI57:
 1595              		.cfi_def_cfa_offset 48
 1596 0004 0668     		ldr	r6, [r0]
 1597              	.LVL169:
 1598              	.LBB123:
 1599              	.LBB124:
1226:Src/bno055/bno055.c ****     if (err != HAL_OK) {
 1600              		.loc 1 1226 11 view .LVU400
 1601 0006 4FF0FF37 		mov	r7, #-1
 1602 000a 2823     		movs	r3, #40
 1603 000c 0097     		str	r7, [sp]
 1604              	.LVL170:
1226:Src/bno055/bno055.c ****     if (err != HAL_OK) {
 1605              		.loc 1 1226 11 view .LVU401
 1606 000e 8DF81330 		strb	r3, [sp, #19]
 1607              	.LVL171:
1226:Src/bno055/bno055.c ****     if (err != HAL_OK) {
 1608              		.loc 1 1226 11 view .LVU402
 1609              	.LBE124:
 1610              	.LBI123:
1220:Src/bno055/bno055.c ****                            uint32_t buf_size) {
 1611              		.loc 1 1220 11 is_stmt 1 view .LVU403
 1612              	.LBB125:
1222:Src/bno055/bno055.c ****     // err = HAL_I2C_Mem_Read(imu.i2c, imu.addr, addr, I2C_MEMADD_SIZE_8BIT,
 1613              		.loc 1 1222 5 view .LVU404
1226:Src/bno055/bno055.c ****     if (err != HAL_OK) {
 1614              		.loc 1 1226 5 view .LVU405
 1615              	.LBE125:
 1616              	.LBE123:
 284:Src/bno055/bno055.c ****     error_bno err;
 1617              		.loc 1 284 56 is_stmt 0 view .LVU406
 1618 0012 0446     		mov	r4, r0
 1619 0014 0D46     		mov	r5, r1
 1620              	.LBB128:
 1621              	.LBB126:
1226:Src/bno055/bno055.c ****     if (err != HAL_OK) {
 1622              		.loc 1 1226 11 view .LVU407
 1623 0016 0123     		movs	r3, #1
 1624              	.LVL172:
1226:Src/bno055/bno055.c ****     if (err != HAL_OK) {
 1625              		.loc 1 1226 11 view .LVU408
 1626 0018 8179     		ldrb	r1, [r0, #6]	@ zero_extendqisi2
 1627              	.LVL173:
ARM GAS  /tmp/cc9CDFEk.s 			page 57


1226:Src/bno055/bno055.c ****     if (err != HAL_OK) {
 1628              		.loc 1 1226 11 view .LVU409
 1629 001a 0391     		str	r1, [sp, #12]
 1630 001c 0DF11302 		add	r2, sp, #19
 1631              	.LVL174:
1226:Src/bno055/bno055.c ****     if (err != HAL_OK) {
 1632              		.loc 1 1226 11 view .LVU410
 1633 0020 3046     		mov	r0, r6
 1634              	.LVL175:
1226:Src/bno055/bno055.c ****     if (err != HAL_OK) {
 1635              		.loc 1 1226 11 view .LVU411
 1636 0022 FFF7FEFF 		bl	HAL_I2C_Master_Transmit
 1637              	.LVL176:
1227:Src/bno055/bno055.c ****         return BNO_ERR_I2C;
 1638              		.loc 1 1227 5 is_stmt 1 view .LVU412
1227:Src/bno055/bno055.c ****         return BNO_ERR_I2C;
 1639              		.loc 1 1227 8 is_stmt 0 view .LVU413
 1640 0026 0399     		ldr	r1, [sp, #12]
 1641 0028 10B1     		cbz	r0, .L70
 1642              	.L72:
 1643              	.LVL177:
1228:Src/bno055/bno055.c ****     }
 1644              		.loc 1 1228 16 view .LVU414
 1645 002a 0120     		movs	r0, #1
 1646              	.LBE126:
 1647              	.LBE128:
 300:Src/bno055/bno055.c **** 
 1648              		.loc 1 300 1 view .LVU415
 1649 002c 07B0     		add	sp, sp, #28
 1650              	.LCFI58:
 1651              		.cfi_remember_state
 1652              		.cfi_def_cfa_offset 20
 1653              		@ sp needed
 1654 002e F0BD     		pop	{r4, r5, r6, r7, pc}
 1655              	.LVL178:
 1656              	.L70:
 1657              	.LCFI59:
 1658              		.cfi_restore_state
 1659              	.LBB129:
 1660              	.LBB127:
1230:Src/bno055/bno055.c ****         HAL_I2C_Master_Receive(imu.i2c, imu.addr, buf, buf_size, HAL_MAX_DELAY);
 1661              		.loc 1 1230 5 is_stmt 1 view .LVU416
1231:Src/bno055/bno055.c ****     if (err != HAL_OK) {
 1662              		.loc 1 1231 9 is_stmt 0 view .LVU417
 1663 0030 0097     		str	r7, [sp]
 1664 0032 0223     		movs	r3, #2
 1665 0034 3046     		mov	r0, r6
 1666              	.LVL179:
1231:Src/bno055/bno055.c ****     if (err != HAL_OK) {
 1667              		.loc 1 1231 9 view .LVU418
 1668 0036 05AA     		add	r2, sp, #20
 1669              	.LVL180:
1231:Src/bno055/bno055.c ****     if (err != HAL_OK) {
 1670              		.loc 1 1231 9 view .LVU419
 1671 0038 FFF7FEFF 		bl	HAL_I2C_Master_Receive
 1672              	.LVL181:
 1673              		.loc 1 1232 5 is_stmt 1 view .LVU420
ARM GAS  /tmp/cc9CDFEk.s 			page 58


 1674              		.loc 1 1232 8 is_stmt 0 view .LVU421
 1675 003c 0028     		cmp	r0, #0
 1676 003e F4D1     		bne	.L72
 1677              	.LVL182:
 1678              		.loc 1 1232 8 view .LVU422
 1679              	.LBE127:
 1680              	.LBE129:
 296:Src/bno055/bno055.c ****            ((imu->_acc_unit == BNO_ACC_UNITSEL_M_S2) ? BNO_ACC_SCALE_M_2
 1681              		.loc 1 296 5 is_stmt 1 view .LVU423
 296:Src/bno055/bno055.c ****            ((imu->_acc_unit == BNO_ACC_UNITSEL_M_S2) ? BNO_ACC_SCALE_M_2
 1682              		.loc 1 296 44 is_stmt 0 view .LVU424
 1683 0040 BDF91430 		ldrsh	r3, [sp, #20]
 1684 0044 07EE903A 		vmov	s15, r3	@ int
 298:Src/bno055/bno055.c ****     return BNO_OK;
 1685              		.loc 1 298 54 view .LVU425
 1686 0048 A37B     		ldrb	r3, [r4, #14]	@ zero_extendqisi2
 296:Src/bno055/bno055.c ****            ((imu->_acc_unit == BNO_ACC_UNITSEL_M_S2) ? BNO_ACC_SCALE_M_2
 1687              		.loc 1 296 44 view .LVU426
 1688 004a F8EEE77A 		vcvt.f32.s32	s15, s15
 298:Src/bno055/bno055.c ****     return BNO_OK;
 1689              		.loc 1 298 54 view .LVU427
 1690 004e 1BB9     		cbnz	r3, .L73
 296:Src/bno055/bno055.c ****            ((imu->_acc_unit == BNO_ACC_UNITSEL_M_S2) ? BNO_ACC_SCALE_M_2
 1691              		.loc 1 296 44 view .LVU428
 1692 0050 9FED037A 		vldr.32	s14, .L75
 1693 0054 C7EE877A 		vdiv.f32	s15, s15, s14
 1694              	.L73:
 296:Src/bno055/bno055.c ****            ((imu->_acc_unit == BNO_ACC_UNITSEL_M_S2) ? BNO_ACC_SCALE_M_2
 1695              		.loc 1 296 10 view .LVU429
 1696 0058 C5ED007A 		vstr.32	s15, [r5]
 299:Src/bno055/bno055.c **** };
 1697              		.loc 1 299 5 is_stmt 1 view .LVU430
 300:Src/bno055/bno055.c **** 
 1698              		.loc 1 300 1 is_stmt 0 view .LVU431
 1699 005c 07B0     		add	sp, sp, #28
 1700              	.LCFI60:
 1701              		.cfi_def_cfa_offset 20
 1702              		@ sp needed
 1703 005e F0BD     		pop	{r4, r5, r6, r7, pc}
 1704              	.LVL183:
 1705              	.L76:
 300:Src/bno055/bno055.c **** 
 1706              		.loc 1 300 1 view .LVU432
 1707              		.align	2
 1708              	.L75:
 1709 0060 0000C842 		.word	1120403456
 1710              		.cfi_endproc
 1711              	.LFE139:
 1713              		.section	.text.bno055_linear_acc_y,"ax",%progbits
 1714              		.align	1
 1715              		.p2align 2,,3
 1716              		.global	bno055_linear_acc_y
 1717              		.syntax unified
 1718              		.thumb
 1719              		.thumb_func
 1720              		.fpu fpv4-sp-d16
 1722              	bno055_linear_acc_y:
ARM GAS  /tmp/cc9CDFEk.s 			page 59


 1723              	.LVL184:
 1724              	.LFB140:
 319:Src/bno055/bno055.c ****     error_bno err;
 1725              		.loc 1 319 56 is_stmt 1 view -0
 1726              		.cfi_startproc
 1727              		@ args = 0, pretend = 0, frame = 16
 1728              		@ frame_needed = 0, uses_anonymous_args = 0
 320:Src/bno055/bno055.c **** #ifdef BNO_AUTO_PAGE_SET
 1729              		.loc 1 320 5 view .LVU434
 326:Src/bno055/bno055.c ****     if ((err = bno055_read_regs(*imu, BNO_LIA_DATA_Y_LSB, data, 2)) != BNO_OK) {
 1730              		.loc 1 326 5 view .LVU435
 327:Src/bno055/bno055.c ****         return err;
 1731              		.loc 1 327 5 view .LVU436
 319:Src/bno055/bno055.c ****     error_bno err;
 1732              		.loc 1 319 56 is_stmt 0 view .LVU437
 1733 0000 F0B5     		push	{r4, r5, r6, r7, lr}
 1734              	.LCFI61:
 1735              		.cfi_def_cfa_offset 20
 1736              		.cfi_offset 4, -20
 1737              		.cfi_offset 5, -16
 1738              		.cfi_offset 6, -12
 1739              		.cfi_offset 7, -8
 1740              		.cfi_offset 14, -4
 1741 0002 87B0     		sub	sp, sp, #28
 1742              	.LCFI62:
 1743              		.cfi_def_cfa_offset 48
 1744 0004 0668     		ldr	r6, [r0]
 1745              	.LVL185:
 1746              	.LBB132:
 1747              	.LBB133:
1226:Src/bno055/bno055.c ****     if (err != HAL_OK) {
 1748              		.loc 1 1226 11 view .LVU438
 1749 0006 4FF0FF37 		mov	r7, #-1
 1750 000a 2A23     		movs	r3, #42
 1751 000c 0097     		str	r7, [sp]
 1752              	.LVL186:
1226:Src/bno055/bno055.c ****     if (err != HAL_OK) {
 1753              		.loc 1 1226 11 view .LVU439
 1754 000e 8DF81330 		strb	r3, [sp, #19]
 1755              	.LVL187:
1226:Src/bno055/bno055.c ****     if (err != HAL_OK) {
 1756              		.loc 1 1226 11 view .LVU440
 1757              	.LBE133:
 1758              	.LBI132:
1220:Src/bno055/bno055.c ****                            uint32_t buf_size) {
 1759              		.loc 1 1220 11 is_stmt 1 view .LVU441
 1760              	.LBB134:
1222:Src/bno055/bno055.c ****     // err = HAL_I2C_Mem_Read(imu.i2c, imu.addr, addr, I2C_MEMADD_SIZE_8BIT,
 1761              		.loc 1 1222 5 view .LVU442
1226:Src/bno055/bno055.c ****     if (err != HAL_OK) {
 1762              		.loc 1 1226 5 view .LVU443
 1763              	.LBE134:
 1764              	.LBE132:
 319:Src/bno055/bno055.c ****     error_bno err;
 1765              		.loc 1 319 56 is_stmt 0 view .LVU444
 1766 0012 0446     		mov	r4, r0
 1767 0014 0D46     		mov	r5, r1
ARM GAS  /tmp/cc9CDFEk.s 			page 60


 1768              	.LBB137:
 1769              	.LBB135:
1226:Src/bno055/bno055.c ****     if (err != HAL_OK) {
 1770              		.loc 1 1226 11 view .LVU445
 1771 0016 0123     		movs	r3, #1
 1772              	.LVL188:
1226:Src/bno055/bno055.c ****     if (err != HAL_OK) {
 1773              		.loc 1 1226 11 view .LVU446
 1774 0018 8179     		ldrb	r1, [r0, #6]	@ zero_extendqisi2
 1775              	.LVL189:
1226:Src/bno055/bno055.c ****     if (err != HAL_OK) {
 1776              		.loc 1 1226 11 view .LVU447
 1777 001a 0391     		str	r1, [sp, #12]
 1778 001c 0DF11302 		add	r2, sp, #19
 1779              	.LVL190:
1226:Src/bno055/bno055.c ****     if (err != HAL_OK) {
 1780              		.loc 1 1226 11 view .LVU448
 1781 0020 3046     		mov	r0, r6
 1782              	.LVL191:
1226:Src/bno055/bno055.c ****     if (err != HAL_OK) {
 1783              		.loc 1 1226 11 view .LVU449
 1784 0022 FFF7FEFF 		bl	HAL_I2C_Master_Transmit
 1785              	.LVL192:
1227:Src/bno055/bno055.c ****         return BNO_ERR_I2C;
 1786              		.loc 1 1227 5 is_stmt 1 view .LVU450
1227:Src/bno055/bno055.c ****         return BNO_ERR_I2C;
 1787              		.loc 1 1227 8 is_stmt 0 view .LVU451
 1788 0026 0399     		ldr	r1, [sp, #12]
 1789 0028 10B1     		cbz	r0, .L78
 1790              	.L80:
 1791              	.LVL193:
1228:Src/bno055/bno055.c ****     }
 1792              		.loc 1 1228 16 view .LVU452
 1793 002a 0120     		movs	r0, #1
 1794              	.LBE135:
 1795              	.LBE137:
 335:Src/bno055/bno055.c **** 
 1796              		.loc 1 335 1 view .LVU453
 1797 002c 07B0     		add	sp, sp, #28
 1798              	.LCFI63:
 1799              		.cfi_remember_state
 1800              		.cfi_def_cfa_offset 20
 1801              		@ sp needed
 1802 002e F0BD     		pop	{r4, r5, r6, r7, pc}
 1803              	.LVL194:
 1804              	.L78:
 1805              	.LCFI64:
 1806              		.cfi_restore_state
 1807              	.LBB138:
 1808              	.LBB136:
1230:Src/bno055/bno055.c ****         HAL_I2C_Master_Receive(imu.i2c, imu.addr, buf, buf_size, HAL_MAX_DELAY);
 1809              		.loc 1 1230 5 is_stmt 1 view .LVU454
1231:Src/bno055/bno055.c ****     if (err != HAL_OK) {
 1810              		.loc 1 1231 9 is_stmt 0 view .LVU455
 1811 0030 0097     		str	r7, [sp]
 1812 0032 0223     		movs	r3, #2
 1813 0034 3046     		mov	r0, r6
ARM GAS  /tmp/cc9CDFEk.s 			page 61


 1814              	.LVL195:
1231:Src/bno055/bno055.c ****     if (err != HAL_OK) {
 1815              		.loc 1 1231 9 view .LVU456
 1816 0036 05AA     		add	r2, sp, #20
 1817              	.LVL196:
1231:Src/bno055/bno055.c ****     if (err != HAL_OK) {
 1818              		.loc 1 1231 9 view .LVU457
 1819 0038 FFF7FEFF 		bl	HAL_I2C_Master_Receive
 1820              	.LVL197:
 1821              		.loc 1 1232 5 is_stmt 1 view .LVU458
 1822              		.loc 1 1232 8 is_stmt 0 view .LVU459
 1823 003c 0028     		cmp	r0, #0
 1824 003e F4D1     		bne	.L80
 1825              	.LVL198:
 1826              		.loc 1 1232 8 view .LVU460
 1827              	.LBE136:
 1828              	.LBE138:
 331:Src/bno055/bno055.c ****            ((imu->_acc_unit == BNO_ACC_UNITSEL_M_S2) ? BNO_ACC_SCALE_M_2
 1829              		.loc 1 331 5 is_stmt 1 view .LVU461
 331:Src/bno055/bno055.c ****            ((imu->_acc_unit == BNO_ACC_UNITSEL_M_S2) ? BNO_ACC_SCALE_M_2
 1830              		.loc 1 331 44 is_stmt 0 view .LVU462
 1831 0040 BDF91430 		ldrsh	r3, [sp, #20]
 1832 0044 07EE903A 		vmov	s15, r3	@ int
 333:Src/bno055/bno055.c ****     return BNO_OK;
 1833              		.loc 1 333 54 view .LVU463
 1834 0048 A37B     		ldrb	r3, [r4, #14]	@ zero_extendqisi2
 331:Src/bno055/bno055.c ****            ((imu->_acc_unit == BNO_ACC_UNITSEL_M_S2) ? BNO_ACC_SCALE_M_2
 1835              		.loc 1 331 44 view .LVU464
 1836 004a F8EEE77A 		vcvt.f32.s32	s15, s15
 333:Src/bno055/bno055.c ****     return BNO_OK;
 1837              		.loc 1 333 54 view .LVU465
 1838 004e 1BB9     		cbnz	r3, .L81
 331:Src/bno055/bno055.c ****            ((imu->_acc_unit == BNO_ACC_UNITSEL_M_S2) ? BNO_ACC_SCALE_M_2
 1839              		.loc 1 331 44 view .LVU466
 1840 0050 9FED037A 		vldr.32	s14, .L83
 1841 0054 C7EE877A 		vdiv.f32	s15, s15, s14
 1842              	.L81:
 331:Src/bno055/bno055.c ****            ((imu->_acc_unit == BNO_ACC_UNITSEL_M_S2) ? BNO_ACC_SCALE_M_2
 1843              		.loc 1 331 10 view .LVU467
 1844 0058 C5ED007A 		vstr.32	s15, [r5]
 334:Src/bno055/bno055.c **** };
 1845              		.loc 1 334 5 is_stmt 1 view .LVU468
 335:Src/bno055/bno055.c **** 
 1846              		.loc 1 335 1 is_stmt 0 view .LVU469
 1847 005c 07B0     		add	sp, sp, #28
 1848              	.LCFI65:
 1849              		.cfi_def_cfa_offset 20
 1850              		@ sp needed
 1851 005e F0BD     		pop	{r4, r5, r6, r7, pc}
 1852              	.LVL199:
 1853              	.L84:
 335:Src/bno055/bno055.c **** 
 1854              		.loc 1 335 1 view .LVU470
 1855              		.align	2
 1856              	.L83:
 1857 0060 0000C842 		.word	1120403456
 1858              		.cfi_endproc
ARM GAS  /tmp/cc9CDFEk.s 			page 62


 1859              	.LFE140:
 1861              		.section	.text.bno055_gravity_x,"ax",%progbits
 1862              		.align	1
 1863              		.p2align 2,,3
 1864              		.global	bno055_gravity_x
 1865              		.syntax unified
 1866              		.thumb
 1867              		.thumb_func
 1868              		.fpu fpv4-sp-d16
 1870              	bno055_gravity_x:
 1871              	.LVL200:
 1872              	.LFB151:
 710:Src/bno055/bno055.c ****     error_bno err;
 1873              		.loc 1 710 53 is_stmt 1 view -0
 1874              		.cfi_startproc
 1875              		@ args = 0, pretend = 0, frame = 16
 1876              		@ frame_needed = 0, uses_anonymous_args = 0
 711:Src/bno055/bno055.c **** #ifdef BNO_AUTO_PAGE_SET
 1877              		.loc 1 711 5 view .LVU472
 717:Src/bno055/bno055.c ****     if ((err = bno055_read_regs(*imu, BNO_GRV_DATA_X_LSB, data, 2)) != BNO_OK) {
 1878              		.loc 1 717 5 view .LVU473
 718:Src/bno055/bno055.c ****         return err;
 1879              		.loc 1 718 5 view .LVU474
 710:Src/bno055/bno055.c ****     error_bno err;
 1880              		.loc 1 710 53 is_stmt 0 view .LVU475
 1881 0000 F0B5     		push	{r4, r5, r6, r7, lr}
 1882              	.LCFI66:
 1883              		.cfi_def_cfa_offset 20
 1884              		.cfi_offset 4, -20
 1885              		.cfi_offset 5, -16
 1886              		.cfi_offset 6, -12
 1887              		.cfi_offset 7, -8
 1888              		.cfi_offset 14, -4
 1889 0002 87B0     		sub	sp, sp, #28
 1890              	.LCFI67:
 1891              		.cfi_def_cfa_offset 48
 1892 0004 0668     		ldr	r6, [r0]
 1893              	.LVL201:
 1894              	.LBB141:
 1895              	.LBB142:
1226:Src/bno055/bno055.c ****     if (err != HAL_OK) {
 1896              		.loc 1 1226 11 view .LVU476
 1897 0006 4FF0FF37 		mov	r7, #-1
 1898 000a 2E23     		movs	r3, #46
 1899 000c 0097     		str	r7, [sp]
 1900              	.LVL202:
1226:Src/bno055/bno055.c ****     if (err != HAL_OK) {
 1901              		.loc 1 1226 11 view .LVU477
 1902 000e 8DF81330 		strb	r3, [sp, #19]
 1903              	.LVL203:
1226:Src/bno055/bno055.c ****     if (err != HAL_OK) {
 1904              		.loc 1 1226 11 view .LVU478
 1905              	.LBE142:
 1906              	.LBI141:
1220:Src/bno055/bno055.c ****                            uint32_t buf_size) {
 1907              		.loc 1 1220 11 is_stmt 1 view .LVU479
 1908              	.LBB143:
ARM GAS  /tmp/cc9CDFEk.s 			page 63


1222:Src/bno055/bno055.c ****     // err = HAL_I2C_Mem_Read(imu.i2c, imu.addr, addr, I2C_MEMADD_SIZE_8BIT,
 1909              		.loc 1 1222 5 view .LVU480
1226:Src/bno055/bno055.c ****     if (err != HAL_OK) {
 1910              		.loc 1 1226 5 view .LVU481
 1911              	.LBE143:
 1912              	.LBE141:
 710:Src/bno055/bno055.c ****     error_bno err;
 1913              		.loc 1 710 53 is_stmt 0 view .LVU482
 1914 0012 0446     		mov	r4, r0
 1915 0014 0D46     		mov	r5, r1
 1916              	.LBB146:
 1917              	.LBB144:
1226:Src/bno055/bno055.c ****     if (err != HAL_OK) {
 1918              		.loc 1 1226 11 view .LVU483
 1919 0016 0123     		movs	r3, #1
 1920              	.LVL204:
1226:Src/bno055/bno055.c ****     if (err != HAL_OK) {
 1921              		.loc 1 1226 11 view .LVU484
 1922 0018 8179     		ldrb	r1, [r0, #6]	@ zero_extendqisi2
 1923              	.LVL205:
1226:Src/bno055/bno055.c ****     if (err != HAL_OK) {
 1924              		.loc 1 1226 11 view .LVU485
 1925 001a 0391     		str	r1, [sp, #12]
 1926 001c 0DF11302 		add	r2, sp, #19
 1927              	.LVL206:
1226:Src/bno055/bno055.c ****     if (err != HAL_OK) {
 1928              		.loc 1 1226 11 view .LVU486
 1929 0020 3046     		mov	r0, r6
 1930              	.LVL207:
1226:Src/bno055/bno055.c ****     if (err != HAL_OK) {
 1931              		.loc 1 1226 11 view .LVU487
 1932 0022 FFF7FEFF 		bl	HAL_I2C_Master_Transmit
 1933              	.LVL208:
1227:Src/bno055/bno055.c ****         return BNO_ERR_I2C;
 1934              		.loc 1 1227 5 is_stmt 1 view .LVU488
1227:Src/bno055/bno055.c ****         return BNO_ERR_I2C;
 1935              		.loc 1 1227 8 is_stmt 0 view .LVU489
 1936 0026 0399     		ldr	r1, [sp, #12]
 1937 0028 10B1     		cbz	r0, .L86
 1938              	.L88:
 1939              	.LVL209:
1228:Src/bno055/bno055.c ****     }
 1940              		.loc 1 1228 16 view .LVU490
 1941 002a 0120     		movs	r0, #1
 1942              	.LBE144:
 1943              	.LBE146:
 725:Src/bno055/bno055.c **** 
 1944              		.loc 1 725 1 view .LVU491
 1945 002c 07B0     		add	sp, sp, #28
 1946              	.LCFI68:
 1947              		.cfi_remember_state
 1948              		.cfi_def_cfa_offset 20
 1949              		@ sp needed
 1950 002e F0BD     		pop	{r4, r5, r6, r7, pc}
 1951              	.LVL210:
 1952              	.L86:
 1953              	.LCFI69:
ARM GAS  /tmp/cc9CDFEk.s 			page 64


 1954              		.cfi_restore_state
 1955              	.LBB147:
 1956              	.LBB145:
1230:Src/bno055/bno055.c ****         HAL_I2C_Master_Receive(imu.i2c, imu.addr, buf, buf_size, HAL_MAX_DELAY);
 1957              		.loc 1 1230 5 is_stmt 1 view .LVU492
1231:Src/bno055/bno055.c ****     if (err != HAL_OK) {
 1958              		.loc 1 1231 9 is_stmt 0 view .LVU493
 1959 0030 0097     		str	r7, [sp]
 1960 0032 0223     		movs	r3, #2
 1961 0034 3046     		mov	r0, r6
 1962              	.LVL211:
1231:Src/bno055/bno055.c ****     if (err != HAL_OK) {
 1963              		.loc 1 1231 9 view .LVU494
 1964 0036 05AA     		add	r2, sp, #20
 1965              	.LVL212:
1231:Src/bno055/bno055.c ****     if (err != HAL_OK) {
 1966              		.loc 1 1231 9 view .LVU495
 1967 0038 FFF7FEFF 		bl	HAL_I2C_Master_Receive
 1968              	.LVL213:
 1969              		.loc 1 1232 5 is_stmt 1 view .LVU496
 1970              		.loc 1 1232 8 is_stmt 0 view .LVU497
 1971 003c 0028     		cmp	r0, #0
 1972 003e F4D1     		bne	.L88
 1973              	.LVL214:
 1974              		.loc 1 1232 8 view .LVU498
 1975              	.LBE145:
 1976              	.LBE147:
 721:Src/bno055/bno055.c ****                                                          : BNO_ACC_SCALE_MG;
 1977              		.loc 1 721 5 is_stmt 1 view .LVU499
 723:Src/bno055/bno055.c ****     return BNO_OK;
 1978              		.loc 1 723 44 is_stmt 0 view .LVU500
 1979 0040 BDF91420 		ldrsh	r2, [sp, #20]
 722:Src/bno055/bno055.c ****     *buf = (s16)((data[1] << 8) | data[0]) / scale;
 1980              		.loc 1 722 58 view .LVU501
 1981 0044 A37B     		ldrb	r3, [r4, #14]	@ zero_extendqisi2
 1982 0046 DFED097A 		vldr.32	s15, .L92
 723:Src/bno055/bno055.c ****     return BNO_OK;
 1983              		.loc 1 723 44 view .LVU502
 1984 004a 07EE102A 		vmov	s14, r2	@ int
 722:Src/bno055/bno055.c ****     *buf = (s16)((data[1] << 8) | data[0]) / scale;
 1985              		.loc 1 722 58 view .LVU503
 1986 004e F7EE006A 		vmov.f32	s13, #1.0e+0
 723:Src/bno055/bno055.c ****     return BNO_OK;
 1987              		.loc 1 723 44 view .LVU504
 1988 0052 B8EEC77A 		vcvt.f32.s32	s14, s14
 722:Src/bno055/bno055.c ****     *buf = (s16)((data[1] << 8) | data[0]) / scale;
 1989              		.loc 1 722 58 view .LVU505
 1990 0056 002B     		cmp	r3, #0
 1991 0058 18BF     		it	ne
 1992 005a F0EE667A 		vmovne.f32	s15, s13
 1993              	.LVL215:
 723:Src/bno055/bno055.c ****     return BNO_OK;
 1994              		.loc 1 723 5 is_stmt 1 view .LVU506
 723:Src/bno055/bno055.c ****     return BNO_OK;
 1995              		.loc 1 723 44 is_stmt 0 view .LVU507
 1996 005e C7EE276A 		vdiv.f32	s13, s14, s15
 723:Src/bno055/bno055.c ****     return BNO_OK;
ARM GAS  /tmp/cc9CDFEk.s 			page 65


 1997              		.loc 1 723 10 view .LVU508
 1998 0062 C5ED006A 		vstr.32	s13, [r5]
 724:Src/bno055/bno055.c **** }
 1999              		.loc 1 724 5 is_stmt 1 view .LVU509
 725:Src/bno055/bno055.c **** 
 2000              		.loc 1 725 1 is_stmt 0 view .LVU510
 2001 0066 07B0     		add	sp, sp, #28
 2002              	.LCFI70:
 2003              		.cfi_def_cfa_offset 20
 2004              		@ sp needed
 2005 0068 F0BD     		pop	{r4, r5, r6, r7, pc}
 2006              	.LVL216:
 2007              	.L93:
 725:Src/bno055/bno055.c **** 
 2008              		.loc 1 725 1 view .LVU511
 2009 006a 00BF     		.align	2
 2010              	.L92:
 2011 006c 0000C842 		.word	1120403456
 2012              		.cfi_endproc
 2013              	.LFE151:
 2015              		.section	.text.bno055_gravity_y,"ax",%progbits
 2016              		.align	1
 2017              		.p2align 2,,3
 2018              		.global	bno055_gravity_y
 2019              		.syntax unified
 2020              		.thumb
 2021              		.thumb_func
 2022              		.fpu fpv4-sp-d16
 2024              	bno055_gravity_y:
 2025              	.LVL217:
 2026              	.LFB152:
 744:Src/bno055/bno055.c ****     error_bno err;
 2027              		.loc 1 744 53 is_stmt 1 view -0
 2028              		.cfi_startproc
 2029              		@ args = 0, pretend = 0, frame = 16
 2030              		@ frame_needed = 0, uses_anonymous_args = 0
 745:Src/bno055/bno055.c **** #ifdef BNO_AUTO_PAGE_SET
 2031              		.loc 1 745 5 view .LVU513
 751:Src/bno055/bno055.c ****     if ((err = bno055_read_regs(*imu, BNO_GRV_DATA_Y_LSB, data, 2)) != BNO_OK) {
 2032              		.loc 1 751 5 view .LVU514
 752:Src/bno055/bno055.c ****         return err;
 2033              		.loc 1 752 5 view .LVU515
 744:Src/bno055/bno055.c ****     error_bno err;
 2034              		.loc 1 744 53 is_stmt 0 view .LVU516
 2035 0000 F0B5     		push	{r4, r5, r6, r7, lr}
 2036              	.LCFI71:
 2037              		.cfi_def_cfa_offset 20
 2038              		.cfi_offset 4, -20
 2039              		.cfi_offset 5, -16
 2040              		.cfi_offset 6, -12
 2041              		.cfi_offset 7, -8
 2042              		.cfi_offset 14, -4
 2043 0002 87B0     		sub	sp, sp, #28
 2044              	.LCFI72:
 2045              		.cfi_def_cfa_offset 48
 2046 0004 0668     		ldr	r6, [r0]
 2047              	.LVL218:
ARM GAS  /tmp/cc9CDFEk.s 			page 66


 2048              	.LBB150:
 2049              	.LBB151:
1226:Src/bno055/bno055.c ****     if (err != HAL_OK) {
 2050              		.loc 1 1226 11 view .LVU517
 2051 0006 4FF0FF37 		mov	r7, #-1
 2052 000a 3023     		movs	r3, #48
 2053 000c 0097     		str	r7, [sp]
 2054              	.LVL219:
1226:Src/bno055/bno055.c ****     if (err != HAL_OK) {
 2055              		.loc 1 1226 11 view .LVU518
 2056 000e 8DF81330 		strb	r3, [sp, #19]
 2057              	.LVL220:
1226:Src/bno055/bno055.c ****     if (err != HAL_OK) {
 2058              		.loc 1 1226 11 view .LVU519
 2059              	.LBE151:
 2060              	.LBI150:
1220:Src/bno055/bno055.c ****                            uint32_t buf_size) {
 2061              		.loc 1 1220 11 is_stmt 1 view .LVU520
 2062              	.LBB152:
1222:Src/bno055/bno055.c ****     // err = HAL_I2C_Mem_Read(imu.i2c, imu.addr, addr, I2C_MEMADD_SIZE_8BIT,
 2063              		.loc 1 1222 5 view .LVU521
1226:Src/bno055/bno055.c ****     if (err != HAL_OK) {
 2064              		.loc 1 1226 5 view .LVU522
 2065              	.LBE152:
 2066              	.LBE150:
 744:Src/bno055/bno055.c ****     error_bno err;
 2067              		.loc 1 744 53 is_stmt 0 view .LVU523
 2068 0012 0446     		mov	r4, r0
 2069 0014 0D46     		mov	r5, r1
 2070              	.LBB155:
 2071              	.LBB153:
1226:Src/bno055/bno055.c ****     if (err != HAL_OK) {
 2072              		.loc 1 1226 11 view .LVU524
 2073 0016 0123     		movs	r3, #1
 2074              	.LVL221:
1226:Src/bno055/bno055.c ****     if (err != HAL_OK) {
 2075              		.loc 1 1226 11 view .LVU525
 2076 0018 8179     		ldrb	r1, [r0, #6]	@ zero_extendqisi2
 2077              	.LVL222:
1226:Src/bno055/bno055.c ****     if (err != HAL_OK) {
 2078              		.loc 1 1226 11 view .LVU526
 2079 001a 0391     		str	r1, [sp, #12]
 2080 001c 0DF11302 		add	r2, sp, #19
 2081              	.LVL223:
1226:Src/bno055/bno055.c ****     if (err != HAL_OK) {
 2082              		.loc 1 1226 11 view .LVU527
 2083 0020 3046     		mov	r0, r6
 2084              	.LVL224:
1226:Src/bno055/bno055.c ****     if (err != HAL_OK) {
 2085              		.loc 1 1226 11 view .LVU528
 2086 0022 FFF7FEFF 		bl	HAL_I2C_Master_Transmit
 2087              	.LVL225:
1227:Src/bno055/bno055.c ****         return BNO_ERR_I2C;
 2088              		.loc 1 1227 5 is_stmt 1 view .LVU529
1227:Src/bno055/bno055.c ****         return BNO_ERR_I2C;
 2089              		.loc 1 1227 8 is_stmt 0 view .LVU530
 2090 0026 0399     		ldr	r1, [sp, #12]
ARM GAS  /tmp/cc9CDFEk.s 			page 67


 2091 0028 10B1     		cbz	r0, .L95
 2092              	.L97:
 2093              	.LVL226:
1228:Src/bno055/bno055.c ****     }
 2094              		.loc 1 1228 16 view .LVU531
 2095 002a 0120     		movs	r0, #1
 2096              	.LBE153:
 2097              	.LBE155:
 759:Src/bno055/bno055.c **** 
 2098              		.loc 1 759 1 view .LVU532
 2099 002c 07B0     		add	sp, sp, #28
 2100              	.LCFI73:
 2101              		.cfi_remember_state
 2102              		.cfi_def_cfa_offset 20
 2103              		@ sp needed
 2104 002e F0BD     		pop	{r4, r5, r6, r7, pc}
 2105              	.LVL227:
 2106              	.L95:
 2107              	.LCFI74:
 2108              		.cfi_restore_state
 2109              	.LBB156:
 2110              	.LBB154:
1230:Src/bno055/bno055.c ****         HAL_I2C_Master_Receive(imu.i2c, imu.addr, buf, buf_size, HAL_MAX_DELAY);
 2111              		.loc 1 1230 5 is_stmt 1 view .LVU533
1231:Src/bno055/bno055.c ****     if (err != HAL_OK) {
 2112              		.loc 1 1231 9 is_stmt 0 view .LVU534
 2113 0030 0097     		str	r7, [sp]
 2114 0032 0223     		movs	r3, #2
 2115 0034 3046     		mov	r0, r6
 2116              	.LVL228:
1231:Src/bno055/bno055.c ****     if (err != HAL_OK) {
 2117              		.loc 1 1231 9 view .LVU535
 2118 0036 05AA     		add	r2, sp, #20
 2119              	.LVL229:
1231:Src/bno055/bno055.c ****     if (err != HAL_OK) {
 2120              		.loc 1 1231 9 view .LVU536
 2121 0038 FFF7FEFF 		bl	HAL_I2C_Master_Receive
 2122              	.LVL230:
 2123              		.loc 1 1232 5 is_stmt 1 view .LVU537
 2124              		.loc 1 1232 8 is_stmt 0 view .LVU538
 2125 003c 0028     		cmp	r0, #0
 2126 003e F4D1     		bne	.L97
 2127              	.LVL231:
 2128              		.loc 1 1232 8 view .LVU539
 2129              	.LBE154:
 2130              	.LBE156:
 755:Src/bno055/bno055.c ****                                                          : BNO_ACC_SCALE_MG;
 2131              		.loc 1 755 5 is_stmt 1 view .LVU540
 757:Src/bno055/bno055.c ****     return BNO_OK;
 2132              		.loc 1 757 44 is_stmt 0 view .LVU541
 2133 0040 BDF91420 		ldrsh	r2, [sp, #20]
 756:Src/bno055/bno055.c ****     *buf = (s16)((data[1] << 8) | data[0]) / scale;
 2134              		.loc 1 756 58 view .LVU542
 2135 0044 A37B     		ldrb	r3, [r4, #14]	@ zero_extendqisi2
 2136 0046 DFED097A 		vldr.32	s15, .L101
 757:Src/bno055/bno055.c ****     return BNO_OK;
 2137              		.loc 1 757 44 view .LVU543
ARM GAS  /tmp/cc9CDFEk.s 			page 68


 2138 004a 07EE102A 		vmov	s14, r2	@ int
 756:Src/bno055/bno055.c ****     *buf = (s16)((data[1] << 8) | data[0]) / scale;
 2139              		.loc 1 756 58 view .LVU544
 2140 004e F7EE006A 		vmov.f32	s13, #1.0e+0
 757:Src/bno055/bno055.c ****     return BNO_OK;
 2141              		.loc 1 757 44 view .LVU545
 2142 0052 B8EEC77A 		vcvt.f32.s32	s14, s14
 756:Src/bno055/bno055.c ****     *buf = (s16)((data[1] << 8) | data[0]) / scale;
 2143              		.loc 1 756 58 view .LVU546
 2144 0056 002B     		cmp	r3, #0
 2145 0058 18BF     		it	ne
 2146 005a F0EE667A 		vmovne.f32	s15, s13
 2147              	.LVL232:
 757:Src/bno055/bno055.c ****     return BNO_OK;
 2148              		.loc 1 757 5 is_stmt 1 view .LVU547
 757:Src/bno055/bno055.c ****     return BNO_OK;
 2149              		.loc 1 757 44 is_stmt 0 view .LVU548
 2150 005e C7EE276A 		vdiv.f32	s13, s14, s15
 757:Src/bno055/bno055.c ****     return BNO_OK;
 2151              		.loc 1 757 10 view .LVU549
 2152 0062 C5ED006A 		vstr.32	s13, [r5]
 758:Src/bno055/bno055.c **** }
 2153              		.loc 1 758 5 is_stmt 1 view .LVU550
 759:Src/bno055/bno055.c **** 
 2154              		.loc 1 759 1 is_stmt 0 view .LVU551
 2155 0066 07B0     		add	sp, sp, #28
 2156              	.LCFI75:
 2157              		.cfi_def_cfa_offset 20
 2158              		@ sp needed
 2159 0068 F0BD     		pop	{r4, r5, r6, r7, pc}
 2160              	.LVL233:
 2161              	.L102:
 759:Src/bno055/bno055.c **** 
 2162              		.loc 1 759 1 view .LVU552
 2163 006a 00BF     		.align	2
 2164              	.L101:
 2165 006c 0000C842 		.word	1120403456
 2166              		.cfi_endproc
 2167              	.LFE152:
 2169              		.section	.text.bno055_gravity_z,"ax",%progbits
 2170              		.align	1
 2171              		.p2align 2,,3
 2172              		.global	bno055_gravity_z
 2173              		.syntax unified
 2174              		.thumb
 2175              		.thumb_func
 2176              		.fpu fpv4-sp-d16
 2178              	bno055_gravity_z:
 2179              	.LVL234:
 2180              	.LFB153:
 778:Src/bno055/bno055.c ****     error_bno err;
 2181              		.loc 1 778 53 is_stmt 1 view -0
 2182              		.cfi_startproc
 2183              		@ args = 0, pretend = 0, frame = 16
 2184              		@ frame_needed = 0, uses_anonymous_args = 0
 779:Src/bno055/bno055.c **** #ifdef BNO_AUTO_PAGE_SET
 2185              		.loc 1 779 5 view .LVU554
ARM GAS  /tmp/cc9CDFEk.s 			page 69


 785:Src/bno055/bno055.c ****     if ((err = bno055_read_regs(*imu, BNO_GRV_DATA_Z_LSB, data, 2)) != BNO_OK) {
 2186              		.loc 1 785 5 view .LVU555
 786:Src/bno055/bno055.c ****         return err;
 2187              		.loc 1 786 5 view .LVU556
 778:Src/bno055/bno055.c ****     error_bno err;
 2188              		.loc 1 778 53 is_stmt 0 view .LVU557
 2189 0000 F0B5     		push	{r4, r5, r6, r7, lr}
 2190              	.LCFI76:
 2191              		.cfi_def_cfa_offset 20
 2192              		.cfi_offset 4, -20
 2193              		.cfi_offset 5, -16
 2194              		.cfi_offset 6, -12
 2195              		.cfi_offset 7, -8
 2196              		.cfi_offset 14, -4
 2197 0002 87B0     		sub	sp, sp, #28
 2198              	.LCFI77:
 2199              		.cfi_def_cfa_offset 48
 2200 0004 0668     		ldr	r6, [r0]
 2201              	.LVL235:
 2202              	.LBB159:
 2203              	.LBB160:
1226:Src/bno055/bno055.c ****     if (err != HAL_OK) {
 2204              		.loc 1 1226 11 view .LVU558
 2205 0006 4FF0FF37 		mov	r7, #-1
 2206 000a 3223     		movs	r3, #50
 2207 000c 0097     		str	r7, [sp]
 2208              	.LVL236:
1226:Src/bno055/bno055.c ****     if (err != HAL_OK) {
 2209              		.loc 1 1226 11 view .LVU559
 2210 000e 8DF81330 		strb	r3, [sp, #19]
 2211              	.LVL237:
1226:Src/bno055/bno055.c ****     if (err != HAL_OK) {
 2212              		.loc 1 1226 11 view .LVU560
 2213              	.LBE160:
 2214              	.LBI159:
1220:Src/bno055/bno055.c ****                            uint32_t buf_size) {
 2215              		.loc 1 1220 11 is_stmt 1 view .LVU561
 2216              	.LBB161:
1222:Src/bno055/bno055.c ****     // err = HAL_I2C_Mem_Read(imu.i2c, imu.addr, addr, I2C_MEMADD_SIZE_8BIT,
 2217              		.loc 1 1222 5 view .LVU562
1226:Src/bno055/bno055.c ****     if (err != HAL_OK) {
 2218              		.loc 1 1226 5 view .LVU563
 2219              	.LBE161:
 2220              	.LBE159:
 778:Src/bno055/bno055.c ****     error_bno err;
 2221              		.loc 1 778 53 is_stmt 0 view .LVU564
 2222 0012 0446     		mov	r4, r0
 2223 0014 0D46     		mov	r5, r1
 2224              	.LBB164:
 2225              	.LBB162:
1226:Src/bno055/bno055.c ****     if (err != HAL_OK) {
 2226              		.loc 1 1226 11 view .LVU565
 2227 0016 0123     		movs	r3, #1
 2228              	.LVL238:
1226:Src/bno055/bno055.c ****     if (err != HAL_OK) {
 2229              		.loc 1 1226 11 view .LVU566
 2230 0018 8179     		ldrb	r1, [r0, #6]	@ zero_extendqisi2
ARM GAS  /tmp/cc9CDFEk.s 			page 70


 2231              	.LVL239:
1226:Src/bno055/bno055.c ****     if (err != HAL_OK) {
 2232              		.loc 1 1226 11 view .LVU567
 2233 001a 0391     		str	r1, [sp, #12]
 2234 001c 0DF11302 		add	r2, sp, #19
 2235              	.LVL240:
1226:Src/bno055/bno055.c ****     if (err != HAL_OK) {
 2236              		.loc 1 1226 11 view .LVU568
 2237 0020 3046     		mov	r0, r6
 2238              	.LVL241:
1226:Src/bno055/bno055.c ****     if (err != HAL_OK) {
 2239              		.loc 1 1226 11 view .LVU569
 2240 0022 FFF7FEFF 		bl	HAL_I2C_Master_Transmit
 2241              	.LVL242:
1227:Src/bno055/bno055.c ****         return BNO_ERR_I2C;
 2242              		.loc 1 1227 5 is_stmt 1 view .LVU570
1227:Src/bno055/bno055.c ****         return BNO_ERR_I2C;
 2243              		.loc 1 1227 8 is_stmt 0 view .LVU571
 2244 0026 0399     		ldr	r1, [sp, #12]
 2245 0028 10B1     		cbz	r0, .L104
 2246              	.L106:
 2247              	.LVL243:
1228:Src/bno055/bno055.c ****     }
 2248              		.loc 1 1228 16 view .LVU572
 2249 002a 0120     		movs	r0, #1
 2250              	.LBE162:
 2251              	.LBE164:
 793:Src/bno055/bno055.c **** 
 2252              		.loc 1 793 1 view .LVU573
 2253 002c 07B0     		add	sp, sp, #28
 2254              	.LCFI78:
 2255              		.cfi_remember_state
 2256              		.cfi_def_cfa_offset 20
 2257              		@ sp needed
 2258 002e F0BD     		pop	{r4, r5, r6, r7, pc}
 2259              	.LVL244:
 2260              	.L104:
 2261              	.LCFI79:
 2262              		.cfi_restore_state
 2263              	.LBB165:
 2264              	.LBB163:
1230:Src/bno055/bno055.c ****         HAL_I2C_Master_Receive(imu.i2c, imu.addr, buf, buf_size, HAL_MAX_DELAY);
 2265              		.loc 1 1230 5 is_stmt 1 view .LVU574
1231:Src/bno055/bno055.c ****     if (err != HAL_OK) {
 2266              		.loc 1 1231 9 is_stmt 0 view .LVU575
 2267 0030 0097     		str	r7, [sp]
 2268 0032 0223     		movs	r3, #2
 2269 0034 3046     		mov	r0, r6
 2270              	.LVL245:
1231:Src/bno055/bno055.c ****     if (err != HAL_OK) {
 2271              		.loc 1 1231 9 view .LVU576
 2272 0036 05AA     		add	r2, sp, #20
 2273              	.LVL246:
1231:Src/bno055/bno055.c ****     if (err != HAL_OK) {
 2274              		.loc 1 1231 9 view .LVU577
 2275 0038 FFF7FEFF 		bl	HAL_I2C_Master_Receive
 2276              	.LVL247:
ARM GAS  /tmp/cc9CDFEk.s 			page 71


 2277              		.loc 1 1232 5 is_stmt 1 view .LVU578
 2278              		.loc 1 1232 8 is_stmt 0 view .LVU579
 2279 003c 0028     		cmp	r0, #0
 2280 003e F4D1     		bne	.L106
 2281              	.LVL248:
 2282              		.loc 1 1232 8 view .LVU580
 2283              	.LBE163:
 2284              	.LBE165:
 789:Src/bno055/bno055.c ****                                                          : BNO_ACC_SCALE_MG;
 2285              		.loc 1 789 5 is_stmt 1 view .LVU581
 791:Src/bno055/bno055.c ****     return BNO_OK;
 2286              		.loc 1 791 44 is_stmt 0 view .LVU582
 2287 0040 BDF91420 		ldrsh	r2, [sp, #20]
 790:Src/bno055/bno055.c ****     *buf = (s16)((data[1] << 8) | data[0]) / scale;
 2288              		.loc 1 790 58 view .LVU583
 2289 0044 A37B     		ldrb	r3, [r4, #14]	@ zero_extendqisi2
 2290 0046 DFED097A 		vldr.32	s15, .L110
 791:Src/bno055/bno055.c ****     return BNO_OK;
 2291              		.loc 1 791 44 view .LVU584
 2292 004a 07EE102A 		vmov	s14, r2	@ int
 790:Src/bno055/bno055.c ****     *buf = (s16)((data[1] << 8) | data[0]) / scale;
 2293              		.loc 1 790 58 view .LVU585
 2294 004e F7EE006A 		vmov.f32	s13, #1.0e+0
 791:Src/bno055/bno055.c ****     return BNO_OK;
 2295              		.loc 1 791 44 view .LVU586
 2296 0052 B8EEC77A 		vcvt.f32.s32	s14, s14
 790:Src/bno055/bno055.c ****     *buf = (s16)((data[1] << 8) | data[0]) / scale;
 2297              		.loc 1 790 58 view .LVU587
 2298 0056 002B     		cmp	r3, #0
 2299 0058 18BF     		it	ne
 2300 005a F0EE667A 		vmovne.f32	s15, s13
 2301              	.LVL249:
 791:Src/bno055/bno055.c ****     return BNO_OK;
 2302              		.loc 1 791 5 is_stmt 1 view .LVU588
 791:Src/bno055/bno055.c ****     return BNO_OK;
 2303              		.loc 1 791 44 is_stmt 0 view .LVU589
 2304 005e C7EE276A 		vdiv.f32	s13, s14, s15
 791:Src/bno055/bno055.c ****     return BNO_OK;
 2305              		.loc 1 791 10 view .LVU590
 2306 0062 C5ED006A 		vstr.32	s13, [r5]
 792:Src/bno055/bno055.c **** }
 2307              		.loc 1 792 5 is_stmt 1 view .LVU591
 793:Src/bno055/bno055.c **** 
 2308              		.loc 1 793 1 is_stmt 0 view .LVU592
 2309 0066 07B0     		add	sp, sp, #28
 2310              	.LCFI80:
 2311              		.cfi_def_cfa_offset 20
 2312              		@ sp needed
 2313 0068 F0BD     		pop	{r4, r5, r6, r7, pc}
 2314              	.LVL250:
 2315              	.L111:
 793:Src/bno055/bno055.c **** 
 2316              		.loc 1 793 1 view .LVU593
 2317 006a 00BF     		.align	2
 2318              	.L110:
 2319 006c 0000C842 		.word	1120403456
 2320              		.cfi_endproc
ARM GAS  /tmp/cc9CDFEk.s 			page 72


 2321              	.LFE153:
 2323              		.section	.text.bno055_euler_yaw,"ax",%progbits
 2324              		.align	1
 2325              		.p2align 2,,3
 2326              		.global	bno055_euler_yaw
 2327              		.syntax unified
 2328              		.thumb
 2329              		.thumb_func
 2330              		.fpu fpv4-sp-d16
 2332              	bno055_euler_yaw:
 2333              	.LVL251:
 2334              	.LFB155:
 849:Src/bno055/bno055.c ****     error_bno err;
 2335              		.loc 1 849 53 is_stmt 1 view -0
 2336              		.cfi_startproc
 2337              		@ args = 0, pretend = 0, frame = 16
 2338              		@ frame_needed = 0, uses_anonymous_args = 0
 850:Src/bno055/bno055.c **** #ifdef BNO_AUTO_PAGE_SET
 2339              		.loc 1 850 5 view .LVU595
 856:Src/bno055/bno055.c ****     if ((err = bno055_read_regs(*imu, BNO_EUL_HEADING_LSB, data, 2)) !=
 2340              		.loc 1 856 5 view .LVU596
 857:Src/bno055/bno055.c ****         BNO_OK) {
 2341              		.loc 1 857 5 view .LVU597
 849:Src/bno055/bno055.c ****     error_bno err;
 2342              		.loc 1 849 53 is_stmt 0 view .LVU598
 2343 0000 F0B5     		push	{r4, r5, r6, r7, lr}
 2344              	.LCFI81:
 2345              		.cfi_def_cfa_offset 20
 2346              		.cfi_offset 4, -20
 2347              		.cfi_offset 5, -16
 2348              		.cfi_offset 6, -12
 2349              		.cfi_offset 7, -8
 2350              		.cfi_offset 14, -4
 2351 0002 87B0     		sub	sp, sp, #28
 2352              	.LCFI82:
 2353              		.cfi_def_cfa_offset 48
 2354 0004 0668     		ldr	r6, [r0]
 2355              	.LVL252:
 2356              	.LBB168:
 2357              	.LBB169:
1226:Src/bno055/bno055.c ****     if (err != HAL_OK) {
 2358              		.loc 1 1226 11 view .LVU599
 2359 0006 4FF0FF37 		mov	r7, #-1
 2360 000a 1A23     		movs	r3, #26
 2361 000c 0097     		str	r7, [sp]
 2362              	.LVL253:
1226:Src/bno055/bno055.c ****     if (err != HAL_OK) {
 2363              		.loc 1 1226 11 view .LVU600
 2364 000e 8DF81330 		strb	r3, [sp, #19]
 2365              	.LVL254:
1226:Src/bno055/bno055.c ****     if (err != HAL_OK) {
 2366              		.loc 1 1226 11 view .LVU601
 2367              	.LBE169:
 2368              	.LBI168:
1220:Src/bno055/bno055.c ****                            uint32_t buf_size) {
 2369              		.loc 1 1220 11 is_stmt 1 view .LVU602
 2370              	.LBB170:
ARM GAS  /tmp/cc9CDFEk.s 			page 73


1222:Src/bno055/bno055.c ****     // err = HAL_I2C_Mem_Read(imu.i2c, imu.addr, addr, I2C_MEMADD_SIZE_8BIT,
 2371              		.loc 1 1222 5 view .LVU603
1226:Src/bno055/bno055.c ****     if (err != HAL_OK) {
 2372              		.loc 1 1226 5 view .LVU604
 2373              	.LBE170:
 2374              	.LBE168:
 849:Src/bno055/bno055.c ****     error_bno err;
 2375              		.loc 1 849 53 is_stmt 0 view .LVU605
 2376 0012 0446     		mov	r4, r0
 2377 0014 0D46     		mov	r5, r1
 2378              	.LBB173:
 2379              	.LBB171:
1226:Src/bno055/bno055.c ****     if (err != HAL_OK) {
 2380              		.loc 1 1226 11 view .LVU606
 2381 0016 0123     		movs	r3, #1
 2382              	.LVL255:
1226:Src/bno055/bno055.c ****     if (err != HAL_OK) {
 2383              		.loc 1 1226 11 view .LVU607
 2384 0018 8179     		ldrb	r1, [r0, #6]	@ zero_extendqisi2
 2385              	.LVL256:
1226:Src/bno055/bno055.c ****     if (err != HAL_OK) {
 2386              		.loc 1 1226 11 view .LVU608
 2387 001a 0391     		str	r1, [sp, #12]
 2388 001c 0DF11302 		add	r2, sp, #19
 2389              	.LVL257:
1226:Src/bno055/bno055.c ****     if (err != HAL_OK) {
 2390              		.loc 1 1226 11 view .LVU609
 2391 0020 3046     		mov	r0, r6
 2392              	.LVL258:
1226:Src/bno055/bno055.c ****     if (err != HAL_OK) {
 2393              		.loc 1 1226 11 view .LVU610
 2394 0022 FFF7FEFF 		bl	HAL_I2C_Master_Transmit
 2395              	.LVL259:
1227:Src/bno055/bno055.c ****         return BNO_ERR_I2C;
 2396              		.loc 1 1227 5 is_stmt 1 view .LVU611
1227:Src/bno055/bno055.c ****         return BNO_ERR_I2C;
 2397              		.loc 1 1227 8 is_stmt 0 view .LVU612
 2398 0026 0399     		ldr	r1, [sp, #12]
 2399 0028 10B1     		cbz	r0, .L113
 2400              	.L115:
 2401              	.LVL260:
1228:Src/bno055/bno055.c ****     }
 2402              		.loc 1 1228 16 view .LVU613
 2403 002a 0120     		movs	r0, #1
 2404              	.LBE171:
 2405              	.LBE173:
 865:Src/bno055/bno055.c **** 
 2406              		.loc 1 865 1 view .LVU614
 2407 002c 07B0     		add	sp, sp, #28
 2408              	.LCFI83:
 2409              		.cfi_remember_state
 2410              		.cfi_def_cfa_offset 20
 2411              		@ sp needed
 2412 002e F0BD     		pop	{r4, r5, r6, r7, pc}
 2413              	.LVL261:
 2414              	.L113:
 2415              	.LCFI84:
ARM GAS  /tmp/cc9CDFEk.s 			page 74


 2416              		.cfi_restore_state
 2417              	.LBB174:
 2418              	.LBB172:
1230:Src/bno055/bno055.c ****         HAL_I2C_Master_Receive(imu.i2c, imu.addr, buf, buf_size, HAL_MAX_DELAY);
 2419              		.loc 1 1230 5 is_stmt 1 view .LVU615
1231:Src/bno055/bno055.c ****     if (err != HAL_OK) {
 2420              		.loc 1 1231 9 is_stmt 0 view .LVU616
 2421 0030 0097     		str	r7, [sp]
 2422 0032 0223     		movs	r3, #2
 2423 0034 3046     		mov	r0, r6
 2424              	.LVL262:
1231:Src/bno055/bno055.c ****     if (err != HAL_OK) {
 2425              		.loc 1 1231 9 view .LVU617
 2426 0036 05AA     		add	r2, sp, #20
 2427              	.LVL263:
1231:Src/bno055/bno055.c ****     if (err != HAL_OK) {
 2428              		.loc 1 1231 9 view .LVU618
 2429 0038 FFF7FEFF 		bl	HAL_I2C_Master_Receive
 2430              	.LVL264:
 2431              		.loc 1 1232 5 is_stmt 1 view .LVU619
 2432              		.loc 1 1232 8 is_stmt 0 view .LVU620
 2433 003c 0028     		cmp	r0, #0
 2434 003e F4D1     		bne	.L115
 2435              	.LVL265:
 2436              		.loc 1 1232 8 view .LVU621
 2437              	.LBE172:
 2438              	.LBE174:
 861:Src/bno055/bno055.c ****                                                      : BNO_EUL_SCALE_RAD;
 2439              		.loc 1 861 5 is_stmt 1 view .LVU622
 863:Src/bno055/bno055.c ****     return BNO_OK;
 2440              		.loc 1 863 44 is_stmt 0 view .LVU623
 2441 0040 BDF91420 		ldrsh	r2, [sp, #20]
 862:Src/bno055/bno055.c ****     *buf = (s16)((data[1] << 8) | data[0]) / scale;
 2442              		.loc 1 862 54 view .LVU624
 2443 0044 637C     		ldrb	r3, [r4, #17]	@ zero_extendqisi2
 2444 0046 DFED096A 		vldr.32	s13, .L119
 863:Src/bno055/bno055.c ****     return BNO_OK;
 2445              		.loc 1 863 44 view .LVU625
 2446 004a 07EE102A 		vmov	s14, r2	@ int
 862:Src/bno055/bno055.c ****     *buf = (s16)((data[1] << 8) | data[0]) / scale;
 2447              		.loc 1 862 54 view .LVU626
 2448 004e 002B     		cmp	r3, #0
 863:Src/bno055/bno055.c ****     return BNO_OK;
 2449              		.loc 1 863 44 view .LVU627
 2450 0050 B8EEC77A 		vcvt.f32.s32	s14, s14
 862:Src/bno055/bno055.c ****     *buf = (s16)((data[1] << 8) | data[0]) / scale;
 2451              		.loc 1 862 54 view .LVU628
 2452 0054 F3EE007A 		vmov.f32	s15, #1.6e+1
 2453 0058 18BF     		it	ne
 2454 005a F0EE667A 		vmovne.f32	s15, s13
 2455              	.LVL266:
 863:Src/bno055/bno055.c ****     return BNO_OK;
 2456              		.loc 1 863 5 is_stmt 1 view .LVU629
 863:Src/bno055/bno055.c ****     return BNO_OK;
 2457              		.loc 1 863 44 is_stmt 0 view .LVU630
 2458 005e C7EE276A 		vdiv.f32	s13, s14, s15
 863:Src/bno055/bno055.c ****     return BNO_OK;
ARM GAS  /tmp/cc9CDFEk.s 			page 75


 2459              		.loc 1 863 10 view .LVU631
 2460 0062 C5ED006A 		vstr.32	s13, [r5]
 864:Src/bno055/bno055.c **** }
 2461              		.loc 1 864 5 is_stmt 1 view .LVU632
 865:Src/bno055/bno055.c **** 
 2462              		.loc 1 865 1 is_stmt 0 view .LVU633
 2463 0066 07B0     		add	sp, sp, #28
 2464              	.LCFI85:
 2465              		.cfi_def_cfa_offset 20
 2466              		@ sp needed
 2467 0068 F0BD     		pop	{r4, r5, r6, r7, pc}
 2468              	.LVL267:
 2469              	.L120:
 865:Src/bno055/bno055.c **** 
 2470              		.loc 1 865 1 view .LVU634
 2471 006a 00BF     		.align	2
 2472              	.L119:
 2473 006c 00006144 		.word	1147207680
 2474              		.cfi_endproc
 2475              	.LFE155:
 2477              		.section	.text.bno055_euler_roll,"ax",%progbits
 2478              		.align	1
 2479              		.p2align 2,,3
 2480              		.global	bno055_euler_roll
 2481              		.syntax unified
 2482              		.thumb
 2483              		.thumb_func
 2484              		.fpu fpv4-sp-d16
 2486              	bno055_euler_roll:
 2487              	.LVL268:
 2488              	.LFB156:
 884:Src/bno055/bno055.c ****     error_bno err;
 2489              		.loc 1 884 54 is_stmt 1 view -0
 2490              		.cfi_startproc
 2491              		@ args = 0, pretend = 0, frame = 16
 2492              		@ frame_needed = 0, uses_anonymous_args = 0
 885:Src/bno055/bno055.c **** #ifdef BNO_AUTO_PAGE_SET
 2493              		.loc 1 885 5 view .LVU636
 891:Src/bno055/bno055.c ****     if ((err = bno055_read_regs(*imu, BNO_EUL_ROLL_LSB, data, 2)) != BNO_OK) {
 2494              		.loc 1 891 5 view .LVU637
 892:Src/bno055/bno055.c ****         return err;
 2495              		.loc 1 892 5 view .LVU638
 884:Src/bno055/bno055.c ****     error_bno err;
 2496              		.loc 1 884 54 is_stmt 0 view .LVU639
 2497 0000 F0B5     		push	{r4, r5, r6, r7, lr}
 2498              	.LCFI86:
 2499              		.cfi_def_cfa_offset 20
 2500              		.cfi_offset 4, -20
 2501              		.cfi_offset 5, -16
 2502              		.cfi_offset 6, -12
 2503              		.cfi_offset 7, -8
 2504              		.cfi_offset 14, -4
 2505 0002 87B0     		sub	sp, sp, #28
 2506              	.LCFI87:
 2507              		.cfi_def_cfa_offset 48
 2508 0004 0668     		ldr	r6, [r0]
 2509              	.LVL269:
ARM GAS  /tmp/cc9CDFEk.s 			page 76


 2510              	.LBB177:
 2511              	.LBB178:
1226:Src/bno055/bno055.c ****     if (err != HAL_OK) {
 2512              		.loc 1 1226 11 view .LVU640
 2513 0006 4FF0FF37 		mov	r7, #-1
 2514 000a 1C23     		movs	r3, #28
 2515 000c 0097     		str	r7, [sp]
 2516              	.LVL270:
1226:Src/bno055/bno055.c ****     if (err != HAL_OK) {
 2517              		.loc 1 1226 11 view .LVU641
 2518 000e 8DF81330 		strb	r3, [sp, #19]
 2519              	.LVL271:
1226:Src/bno055/bno055.c ****     if (err != HAL_OK) {
 2520              		.loc 1 1226 11 view .LVU642
 2521              	.LBE178:
 2522              	.LBI177:
1220:Src/bno055/bno055.c ****                            uint32_t buf_size) {
 2523              		.loc 1 1220 11 is_stmt 1 view .LVU643
 2524              	.LBB179:
1222:Src/bno055/bno055.c ****     // err = HAL_I2C_Mem_Read(imu.i2c, imu.addr, addr, I2C_MEMADD_SIZE_8BIT,
 2525              		.loc 1 1222 5 view .LVU644
1226:Src/bno055/bno055.c ****     if (err != HAL_OK) {
 2526              		.loc 1 1226 5 view .LVU645
 2527              	.LBE179:
 2528              	.LBE177:
 884:Src/bno055/bno055.c ****     error_bno err;
 2529              		.loc 1 884 54 is_stmt 0 view .LVU646
 2530 0012 0446     		mov	r4, r0
 2531 0014 0D46     		mov	r5, r1
 2532              	.LBB182:
 2533              	.LBB180:
1226:Src/bno055/bno055.c ****     if (err != HAL_OK) {
 2534              		.loc 1 1226 11 view .LVU647
 2535 0016 0123     		movs	r3, #1
 2536              	.LVL272:
1226:Src/bno055/bno055.c ****     if (err != HAL_OK) {
 2537              		.loc 1 1226 11 view .LVU648
 2538 0018 8179     		ldrb	r1, [r0, #6]	@ zero_extendqisi2
 2539              	.LVL273:
1226:Src/bno055/bno055.c ****     if (err != HAL_OK) {
 2540              		.loc 1 1226 11 view .LVU649
 2541 001a 0391     		str	r1, [sp, #12]
 2542 001c 0DF11302 		add	r2, sp, #19
 2543              	.LVL274:
1226:Src/bno055/bno055.c ****     if (err != HAL_OK) {
 2544              		.loc 1 1226 11 view .LVU650
 2545 0020 3046     		mov	r0, r6
 2546              	.LVL275:
1226:Src/bno055/bno055.c ****     if (err != HAL_OK) {
 2547              		.loc 1 1226 11 view .LVU651
 2548 0022 FFF7FEFF 		bl	HAL_I2C_Master_Transmit
 2549              	.LVL276:
1227:Src/bno055/bno055.c ****         return BNO_ERR_I2C;
 2550              		.loc 1 1227 5 is_stmt 1 view .LVU652
1227:Src/bno055/bno055.c ****         return BNO_ERR_I2C;
 2551              		.loc 1 1227 8 is_stmt 0 view .LVU653
 2552 0026 0399     		ldr	r1, [sp, #12]
ARM GAS  /tmp/cc9CDFEk.s 			page 77


 2553 0028 10B1     		cbz	r0, .L122
 2554              	.L124:
 2555              	.LVL277:
1228:Src/bno055/bno055.c ****     }
 2556              		.loc 1 1228 16 view .LVU654
 2557 002a 0120     		movs	r0, #1
 2558              	.LBE180:
 2559              	.LBE182:
 899:Src/bno055/bno055.c **** 
 2560              		.loc 1 899 1 view .LVU655
 2561 002c 07B0     		add	sp, sp, #28
 2562              	.LCFI88:
 2563              		.cfi_remember_state
 2564              		.cfi_def_cfa_offset 20
 2565              		@ sp needed
 2566 002e F0BD     		pop	{r4, r5, r6, r7, pc}
 2567              	.LVL278:
 2568              	.L122:
 2569              	.LCFI89:
 2570              		.cfi_restore_state
 2571              	.LBB183:
 2572              	.LBB181:
1230:Src/bno055/bno055.c ****         HAL_I2C_Master_Receive(imu.i2c, imu.addr, buf, buf_size, HAL_MAX_DELAY);
 2573              		.loc 1 1230 5 is_stmt 1 view .LVU656
1231:Src/bno055/bno055.c ****     if (err != HAL_OK) {
 2574              		.loc 1 1231 9 is_stmt 0 view .LVU657
 2575 0030 0097     		str	r7, [sp]
 2576 0032 0223     		movs	r3, #2
 2577 0034 3046     		mov	r0, r6
 2578              	.LVL279:
1231:Src/bno055/bno055.c ****     if (err != HAL_OK) {
 2579              		.loc 1 1231 9 view .LVU658
 2580 0036 05AA     		add	r2, sp, #20
 2581              	.LVL280:
1231:Src/bno055/bno055.c ****     if (err != HAL_OK) {
 2582              		.loc 1 1231 9 view .LVU659
 2583 0038 FFF7FEFF 		bl	HAL_I2C_Master_Receive
 2584              	.LVL281:
 2585              		.loc 1 1232 5 is_stmt 1 view .LVU660
 2586              		.loc 1 1232 8 is_stmt 0 view .LVU661
 2587 003c 0028     		cmp	r0, #0
 2588 003e F4D1     		bne	.L124
 2589              	.LVL282:
 2590              		.loc 1 1232 8 view .LVU662
 2591              	.LBE181:
 2592              	.LBE183:
 895:Src/bno055/bno055.c ****                                                      : BNO_EUL_SCALE_RAD;
 2593              		.loc 1 895 5 is_stmt 1 view .LVU663
 897:Src/bno055/bno055.c ****     return BNO_OK;
 2594              		.loc 1 897 44 is_stmt 0 view .LVU664
 2595 0040 BDF91420 		ldrsh	r2, [sp, #20]
 896:Src/bno055/bno055.c ****     *buf = (s16)((data[1] << 8) | data[0]) / scale;
 2596              		.loc 1 896 54 view .LVU665
 2597 0044 637C     		ldrb	r3, [r4, #17]	@ zero_extendqisi2
 2598 0046 DFED096A 		vldr.32	s13, .L128
 897:Src/bno055/bno055.c ****     return BNO_OK;
 2599              		.loc 1 897 44 view .LVU666
ARM GAS  /tmp/cc9CDFEk.s 			page 78


 2600 004a 07EE102A 		vmov	s14, r2	@ int
 896:Src/bno055/bno055.c ****     *buf = (s16)((data[1] << 8) | data[0]) / scale;
 2601              		.loc 1 896 54 view .LVU667
 2602 004e 002B     		cmp	r3, #0
 897:Src/bno055/bno055.c ****     return BNO_OK;
 2603              		.loc 1 897 44 view .LVU668
 2604 0050 B8EEC77A 		vcvt.f32.s32	s14, s14
 896:Src/bno055/bno055.c ****     *buf = (s16)((data[1] << 8) | data[0]) / scale;
 2605              		.loc 1 896 54 view .LVU669
 2606 0054 F3EE007A 		vmov.f32	s15, #1.6e+1
 2607 0058 18BF     		it	ne
 2608 005a F0EE667A 		vmovne.f32	s15, s13
 2609              	.LVL283:
 897:Src/bno055/bno055.c ****     return BNO_OK;
 2610              		.loc 1 897 5 is_stmt 1 view .LVU670
 897:Src/bno055/bno055.c ****     return BNO_OK;
 2611              		.loc 1 897 44 is_stmt 0 view .LVU671
 2612 005e C7EE276A 		vdiv.f32	s13, s14, s15
 897:Src/bno055/bno055.c ****     return BNO_OK;
 2613              		.loc 1 897 10 view .LVU672
 2614 0062 C5ED006A 		vstr.32	s13, [r5]
 898:Src/bno055/bno055.c **** }
 2615              		.loc 1 898 5 is_stmt 1 view .LVU673
 899:Src/bno055/bno055.c **** 
 2616              		.loc 1 899 1 is_stmt 0 view .LVU674
 2617 0066 07B0     		add	sp, sp, #28
 2618              	.LCFI90:
 2619              		.cfi_def_cfa_offset 20
 2620              		@ sp needed
 2621 0068 F0BD     		pop	{r4, r5, r6, r7, pc}
 2622              	.LVL284:
 2623              	.L129:
 899:Src/bno055/bno055.c **** 
 2624              		.loc 1 899 1 view .LVU675
 2625 006a 00BF     		.align	2
 2626              	.L128:
 2627 006c 00006144 		.word	1147207680
 2628              		.cfi_endproc
 2629              	.LFE156:
 2631              		.section	.text.bno055_euler_pitch,"ax",%progbits
 2632              		.align	1
 2633              		.p2align 2,,3
 2634              		.global	bno055_euler_pitch
 2635              		.syntax unified
 2636              		.thumb
 2637              		.thumb_func
 2638              		.fpu fpv4-sp-d16
 2640              	bno055_euler_pitch:
 2641              	.LVL285:
 2642              	.LFB157:
 918:Src/bno055/bno055.c ****     error_bno err;
 2643              		.loc 1 918 55 is_stmt 1 view -0
 2644              		.cfi_startproc
 2645              		@ args = 0, pretend = 0, frame = 16
 2646              		@ frame_needed = 0, uses_anonymous_args = 0
 919:Src/bno055/bno055.c **** #ifdef BNO_AUTO_PAGE_SET
 2647              		.loc 1 919 5 view .LVU677
ARM GAS  /tmp/cc9CDFEk.s 			page 79


 925:Src/bno055/bno055.c ****     if ((err = bno055_read_regs(*imu, BNO_EUL_PITCH_LSB, data, 2)) != BNO_OK) {
 2648              		.loc 1 925 5 view .LVU678
 926:Src/bno055/bno055.c ****         return err;
 2649              		.loc 1 926 5 view .LVU679
 918:Src/bno055/bno055.c ****     error_bno err;
 2650              		.loc 1 918 55 is_stmt 0 view .LVU680
 2651 0000 F0B5     		push	{r4, r5, r6, r7, lr}
 2652              	.LCFI91:
 2653              		.cfi_def_cfa_offset 20
 2654              		.cfi_offset 4, -20
 2655              		.cfi_offset 5, -16
 2656              		.cfi_offset 6, -12
 2657              		.cfi_offset 7, -8
 2658              		.cfi_offset 14, -4
 2659 0002 87B0     		sub	sp, sp, #28
 2660              	.LCFI92:
 2661              		.cfi_def_cfa_offset 48
 2662 0004 0668     		ldr	r6, [r0]
 2663              	.LVL286:
 2664              	.LBB186:
 2665              	.LBB187:
1226:Src/bno055/bno055.c ****     if (err != HAL_OK) {
 2666              		.loc 1 1226 11 view .LVU681
 2667 0006 4FF0FF37 		mov	r7, #-1
 2668 000a 1E23     		movs	r3, #30
 2669 000c 0097     		str	r7, [sp]
 2670              	.LVL287:
1226:Src/bno055/bno055.c ****     if (err != HAL_OK) {
 2671              		.loc 1 1226 11 view .LVU682
 2672 000e 8DF81330 		strb	r3, [sp, #19]
 2673              	.LVL288:
1226:Src/bno055/bno055.c ****     if (err != HAL_OK) {
 2674              		.loc 1 1226 11 view .LVU683
 2675              	.LBE187:
 2676              	.LBI186:
1220:Src/bno055/bno055.c ****                            uint32_t buf_size) {
 2677              		.loc 1 1220 11 is_stmt 1 view .LVU684
 2678              	.LBB188:
1222:Src/bno055/bno055.c ****     // err = HAL_I2C_Mem_Read(imu.i2c, imu.addr, addr, I2C_MEMADD_SIZE_8BIT,
 2679              		.loc 1 1222 5 view .LVU685
1226:Src/bno055/bno055.c ****     if (err != HAL_OK) {
 2680              		.loc 1 1226 5 view .LVU686
 2681              	.LBE188:
 2682              	.LBE186:
 918:Src/bno055/bno055.c ****     error_bno err;
 2683              		.loc 1 918 55 is_stmt 0 view .LVU687
 2684 0012 0446     		mov	r4, r0
 2685 0014 0D46     		mov	r5, r1
 2686              	.LBB191:
 2687              	.LBB189:
1226:Src/bno055/bno055.c ****     if (err != HAL_OK) {
 2688              		.loc 1 1226 11 view .LVU688
 2689 0016 0123     		movs	r3, #1
 2690              	.LVL289:
1226:Src/bno055/bno055.c ****     if (err != HAL_OK) {
 2691              		.loc 1 1226 11 view .LVU689
 2692 0018 8179     		ldrb	r1, [r0, #6]	@ zero_extendqisi2
ARM GAS  /tmp/cc9CDFEk.s 			page 80


 2693              	.LVL290:
1226:Src/bno055/bno055.c ****     if (err != HAL_OK) {
 2694              		.loc 1 1226 11 view .LVU690
 2695 001a 0391     		str	r1, [sp, #12]
 2696 001c 0DF11302 		add	r2, sp, #19
 2697              	.LVL291:
1226:Src/bno055/bno055.c ****     if (err != HAL_OK) {
 2698              		.loc 1 1226 11 view .LVU691
 2699 0020 3046     		mov	r0, r6
 2700              	.LVL292:
1226:Src/bno055/bno055.c ****     if (err != HAL_OK) {
 2701              		.loc 1 1226 11 view .LVU692
 2702 0022 FFF7FEFF 		bl	HAL_I2C_Master_Transmit
 2703              	.LVL293:
1227:Src/bno055/bno055.c ****         return BNO_ERR_I2C;
 2704              		.loc 1 1227 5 is_stmt 1 view .LVU693
1227:Src/bno055/bno055.c ****         return BNO_ERR_I2C;
 2705              		.loc 1 1227 8 is_stmt 0 view .LVU694
 2706 0026 0399     		ldr	r1, [sp, #12]
 2707 0028 10B1     		cbz	r0, .L131
 2708              	.L133:
 2709              	.LVL294:
1228:Src/bno055/bno055.c ****     }
 2710              		.loc 1 1228 16 view .LVU695
 2711 002a 0120     		movs	r0, #1
 2712              	.LBE189:
 2713              	.LBE191:
 933:Src/bno055/bno055.c **** 
 2714              		.loc 1 933 1 view .LVU696
 2715 002c 07B0     		add	sp, sp, #28
 2716              	.LCFI93:
 2717              		.cfi_remember_state
 2718              		.cfi_def_cfa_offset 20
 2719              		@ sp needed
 2720 002e F0BD     		pop	{r4, r5, r6, r7, pc}
 2721              	.LVL295:
 2722              	.L131:
 2723              	.LCFI94:
 2724              		.cfi_restore_state
 2725              	.LBB192:
 2726              	.LBB190:
1230:Src/bno055/bno055.c ****         HAL_I2C_Master_Receive(imu.i2c, imu.addr, buf, buf_size, HAL_MAX_DELAY);
 2727              		.loc 1 1230 5 is_stmt 1 view .LVU697
1231:Src/bno055/bno055.c ****     if (err != HAL_OK) {
 2728              		.loc 1 1231 9 is_stmt 0 view .LVU698
 2729 0030 0097     		str	r7, [sp]
 2730 0032 0223     		movs	r3, #2
 2731 0034 3046     		mov	r0, r6
 2732              	.LVL296:
1231:Src/bno055/bno055.c ****     if (err != HAL_OK) {
 2733              		.loc 1 1231 9 view .LVU699
 2734 0036 05AA     		add	r2, sp, #20
 2735              	.LVL297:
1231:Src/bno055/bno055.c ****     if (err != HAL_OK) {
 2736              		.loc 1 1231 9 view .LVU700
 2737 0038 FFF7FEFF 		bl	HAL_I2C_Master_Receive
 2738              	.LVL298:
ARM GAS  /tmp/cc9CDFEk.s 			page 81


 2739              		.loc 1 1232 5 is_stmt 1 view .LVU701
 2740              		.loc 1 1232 8 is_stmt 0 view .LVU702
 2741 003c 0028     		cmp	r0, #0
 2742 003e F4D1     		bne	.L133
 2743              	.LVL299:
 2744              		.loc 1 1232 8 view .LVU703
 2745              	.LBE190:
 2746              	.LBE192:
 929:Src/bno055/bno055.c ****                                                      : BNO_EUL_SCALE_RAD;
 2747              		.loc 1 929 5 is_stmt 1 view .LVU704
 931:Src/bno055/bno055.c ****     return BNO_OK;
 2748              		.loc 1 931 44 is_stmt 0 view .LVU705
 2749 0040 BDF91420 		ldrsh	r2, [sp, #20]
 930:Src/bno055/bno055.c ****     *buf = (s16)((data[1] << 8) | data[0]) / scale;
 2750              		.loc 1 930 54 view .LVU706
 2751 0044 637C     		ldrb	r3, [r4, #17]	@ zero_extendqisi2
 2752 0046 DFED096A 		vldr.32	s13, .L137
 931:Src/bno055/bno055.c ****     return BNO_OK;
 2753              		.loc 1 931 44 view .LVU707
 2754 004a 07EE102A 		vmov	s14, r2	@ int
 930:Src/bno055/bno055.c ****     *buf = (s16)((data[1] << 8) | data[0]) / scale;
 2755              		.loc 1 930 54 view .LVU708
 2756 004e 002B     		cmp	r3, #0
 931:Src/bno055/bno055.c ****     return BNO_OK;
 2757              		.loc 1 931 44 view .LVU709
 2758 0050 B8EEC77A 		vcvt.f32.s32	s14, s14
 930:Src/bno055/bno055.c ****     *buf = (s16)((data[1] << 8) | data[0]) / scale;
 2759              		.loc 1 930 54 view .LVU710
 2760 0054 F3EE007A 		vmov.f32	s15, #1.6e+1
 2761 0058 18BF     		it	ne
 2762 005a F0EE667A 		vmovne.f32	s15, s13
 2763              	.LVL300:
 931:Src/bno055/bno055.c ****     return BNO_OK;
 2764              		.loc 1 931 5 is_stmt 1 view .LVU711
 931:Src/bno055/bno055.c ****     return BNO_OK;
 2765              		.loc 1 931 44 is_stmt 0 view .LVU712
 2766 005e C7EE276A 		vdiv.f32	s13, s14, s15
 931:Src/bno055/bno055.c ****     return BNO_OK;
 2767              		.loc 1 931 10 view .LVU713
 2768 0062 C5ED006A 		vstr.32	s13, [r5]
 932:Src/bno055/bno055.c **** }
 2769              		.loc 1 932 5 is_stmt 1 view .LVU714
 933:Src/bno055/bno055.c **** 
 2770              		.loc 1 933 1 is_stmt 0 view .LVU715
 2771 0066 07B0     		add	sp, sp, #28
 2772              	.LCFI95:
 2773              		.cfi_def_cfa_offset 20
 2774              		@ sp needed
 2775 0068 F0BD     		pop	{r4, r5, r6, r7, pc}
 2776              	.LVL301:
 2777              	.L138:
 933:Src/bno055/bno055.c **** 
 2778              		.loc 1 933 1 view .LVU716
 2779 006a 00BF     		.align	2
 2780              	.L137:
 2781 006c 00006144 		.word	1147207680
 2782              		.cfi_endproc
ARM GAS  /tmp/cc9CDFEk.s 			page 82


 2783              	.LFE157:
 2785              		.section	.text.bno055_gyro_z,"ax",%progbits
 2786              		.align	1
 2787              		.p2align 2,,3
 2788              		.global	bno055_gyro_z
 2789              		.syntax unified
 2790              		.thumb
 2791              		.thumb_func
 2792              		.fpu fpv4-sp-d16
 2794              	bno055_gyro_z:
 2795              	.LVL302:
 2796              	.LFB145:
 497:Src/bno055/bno055.c ****     error_bno err;
 2797              		.loc 1 497 50 is_stmt 1 view -0
 2798              		.cfi_startproc
 2799              		@ args = 0, pretend = 0, frame = 16
 2800              		@ frame_needed = 0, uses_anonymous_args = 0
 498:Src/bno055/bno055.c **** #ifdef BNO_AUTO_PAGE_SET
 2801              		.loc 1 498 5 view .LVU718
 504:Src/bno055/bno055.c ****     if ((err = bno055_read_regs(*imu, BNO_GYR_DATA_Z_LSB, data, 2)) != BNO_OK) {
 2802              		.loc 1 504 5 view .LVU719
 505:Src/bno055/bno055.c ****         return err;
 2803              		.loc 1 505 5 view .LVU720
 497:Src/bno055/bno055.c ****     error_bno err;
 2804              		.loc 1 497 50 is_stmt 0 view .LVU721
 2805 0000 F0B5     		push	{r4, r5, r6, r7, lr}
 2806              	.LCFI96:
 2807              		.cfi_def_cfa_offset 20
 2808              		.cfi_offset 4, -20
 2809              		.cfi_offset 5, -16
 2810              		.cfi_offset 6, -12
 2811              		.cfi_offset 7, -8
 2812              		.cfi_offset 14, -4
 2813 0002 87B0     		sub	sp, sp, #28
 2814              	.LCFI97:
 2815              		.cfi_def_cfa_offset 48
 2816 0004 0668     		ldr	r6, [r0]
 2817              	.LVL303:
 2818              	.LBB195:
 2819              	.LBB196:
1226:Src/bno055/bno055.c ****     if (err != HAL_OK) {
 2820              		.loc 1 1226 11 view .LVU722
 2821 0006 4FF0FF37 		mov	r7, #-1
 2822 000a 1823     		movs	r3, #24
 2823 000c 0097     		str	r7, [sp]
 2824              	.LVL304:
1226:Src/bno055/bno055.c ****     if (err != HAL_OK) {
 2825              		.loc 1 1226 11 view .LVU723
 2826 000e 8DF81330 		strb	r3, [sp, #19]
 2827              	.LVL305:
1226:Src/bno055/bno055.c ****     if (err != HAL_OK) {
 2828              		.loc 1 1226 11 view .LVU724
 2829              	.LBE196:
 2830              	.LBI195:
1220:Src/bno055/bno055.c ****                            uint32_t buf_size) {
 2831              		.loc 1 1220 11 is_stmt 1 view .LVU725
 2832              	.LBB197:
ARM GAS  /tmp/cc9CDFEk.s 			page 83


1222:Src/bno055/bno055.c ****     // err = HAL_I2C_Mem_Read(imu.i2c, imu.addr, addr, I2C_MEMADD_SIZE_8BIT,
 2833              		.loc 1 1222 5 view .LVU726
1226:Src/bno055/bno055.c ****     if (err != HAL_OK) {
 2834              		.loc 1 1226 5 view .LVU727
 2835              	.LBE197:
 2836              	.LBE195:
 497:Src/bno055/bno055.c ****     error_bno err;
 2837              		.loc 1 497 50 is_stmt 0 view .LVU728
 2838 0012 0446     		mov	r4, r0
 2839 0014 0D46     		mov	r5, r1
 2840              	.LBB200:
 2841              	.LBB198:
1226:Src/bno055/bno055.c ****     if (err != HAL_OK) {
 2842              		.loc 1 1226 11 view .LVU729
 2843 0016 0123     		movs	r3, #1
 2844              	.LVL306:
1226:Src/bno055/bno055.c ****     if (err != HAL_OK) {
 2845              		.loc 1 1226 11 view .LVU730
 2846 0018 8179     		ldrb	r1, [r0, #6]	@ zero_extendqisi2
 2847              	.LVL307:
1226:Src/bno055/bno055.c ****     if (err != HAL_OK) {
 2848              		.loc 1 1226 11 view .LVU731
 2849 001a 0391     		str	r1, [sp, #12]
 2850 001c 0DF11302 		add	r2, sp, #19
 2851              	.LVL308:
1226:Src/bno055/bno055.c ****     if (err != HAL_OK) {
 2852              		.loc 1 1226 11 view .LVU732
 2853 0020 3046     		mov	r0, r6
 2854              	.LVL309:
1226:Src/bno055/bno055.c ****     if (err != HAL_OK) {
 2855              		.loc 1 1226 11 view .LVU733
 2856 0022 FFF7FEFF 		bl	HAL_I2C_Master_Transmit
 2857              	.LVL310:
1227:Src/bno055/bno055.c ****         return BNO_ERR_I2C;
 2858              		.loc 1 1227 5 is_stmt 1 view .LVU734
1227:Src/bno055/bno055.c ****         return BNO_ERR_I2C;
 2859              		.loc 1 1227 8 is_stmt 0 view .LVU735
 2860 0026 0399     		ldr	r1, [sp, #12]
 2861 0028 10B1     		cbz	r0, .L140
 2862              	.L142:
 2863              	.LVL311:
1228:Src/bno055/bno055.c ****     }
 2864              		.loc 1 1228 16 view .LVU736
 2865 002a 0120     		movs	r0, #1
 2866              	.LBE198:
 2867              	.LBE200:
 513:Src/bno055/bno055.c **** 
 2868              		.loc 1 513 1 view .LVU737
 2869 002c 07B0     		add	sp, sp, #28
 2870              	.LCFI98:
 2871              		.cfi_remember_state
 2872              		.cfi_def_cfa_offset 20
 2873              		@ sp needed
 2874 002e F0BD     		pop	{r4, r5, r6, r7, pc}
 2875              	.LVL312:
 2876              	.L140:
 2877              	.LCFI99:
ARM GAS  /tmp/cc9CDFEk.s 			page 84


 2878              		.cfi_restore_state
 2879              	.LBB201:
 2880              	.LBB199:
1230:Src/bno055/bno055.c ****         HAL_I2C_Master_Receive(imu.i2c, imu.addr, buf, buf_size, HAL_MAX_DELAY);
 2881              		.loc 1 1230 5 is_stmt 1 view .LVU738
1231:Src/bno055/bno055.c ****     if (err != HAL_OK) {
 2882              		.loc 1 1231 9 is_stmt 0 view .LVU739
 2883 0030 0097     		str	r7, [sp]
 2884 0032 0223     		movs	r3, #2
 2885 0034 3046     		mov	r0, r6
 2886              	.LVL313:
1231:Src/bno055/bno055.c ****     if (err != HAL_OK) {
 2887              		.loc 1 1231 9 view .LVU740
 2888 0036 05AA     		add	r2, sp, #20
 2889              	.LVL314:
1231:Src/bno055/bno055.c ****     if (err != HAL_OK) {
 2890              		.loc 1 1231 9 view .LVU741
 2891 0038 FFF7FEFF 		bl	HAL_I2C_Master_Receive
 2892              	.LVL315:
 2893              		.loc 1 1232 5 is_stmt 1 view .LVU742
 2894              		.loc 1 1232 8 is_stmt 0 view .LVU743
 2895 003c 0028     		cmp	r0, #0
 2896 003e F4D1     		bne	.L142
 2897              	.LVL316:
 2898              		.loc 1 1232 8 view .LVU744
 2899              	.LBE199:
 2900              	.LBE201:
 509:Src/bno055/bno055.c ****            ((imu->_gyr_unit == BNO_GYR_UNIT_DPS) ? BNO_GYR_SCALE_DPS
 2901              		.loc 1 509 5 is_stmt 1 view .LVU745
 509:Src/bno055/bno055.c ****            ((imu->_gyr_unit == BNO_GYR_UNIT_DPS) ? BNO_GYR_SCALE_DPS
 2902              		.loc 1 509 44 is_stmt 0 view .LVU746
 2903 0040 BDF91420 		ldrsh	r2, [sp, #20]
 511:Src/bno055/bno055.c ****     return BNO_OK;
 2904              		.loc 1 511 50 view .LVU747
 2905 0044 237C     		ldrb	r3, [r4, #16]	@ zero_extendqisi2
 2906 0046 DFED096A 		vldr.32	s13, .L146
 509:Src/bno055/bno055.c ****            ((imu->_gyr_unit == BNO_GYR_UNIT_DPS) ? BNO_GYR_SCALE_DPS
 2907              		.loc 1 509 44 view .LVU748
 2908 004a 07EE102A 		vmov	s14, r2	@ int
 511:Src/bno055/bno055.c ****     return BNO_OK;
 2909              		.loc 1 511 50 view .LVU749
 2910 004e 002B     		cmp	r3, #0
 509:Src/bno055/bno055.c ****            ((imu->_gyr_unit == BNO_GYR_UNIT_DPS) ? BNO_GYR_SCALE_DPS
 2911              		.loc 1 509 44 view .LVU750
 2912 0050 B8EEC77A 		vcvt.f32.s32	s14, s14
 511:Src/bno055/bno055.c ****     return BNO_OK;
 2913              		.loc 1 511 50 view .LVU751
 2914 0054 F3EE007A 		vmov.f32	s15, #1.6e+1
 2915 0058 18BF     		it	ne
 2916 005a F0EE667A 		vmovne.f32	s15, s13
 509:Src/bno055/bno055.c ****            ((imu->_gyr_unit == BNO_GYR_UNIT_DPS) ? BNO_GYR_SCALE_DPS
 2917              		.loc 1 509 44 view .LVU752
 2918 005e C7EE276A 		vdiv.f32	s13, s14, s15
 509:Src/bno055/bno055.c ****            ((imu->_gyr_unit == BNO_GYR_UNIT_DPS) ? BNO_GYR_SCALE_DPS
 2919              		.loc 1 509 10 view .LVU753
 2920 0062 C5ED006A 		vstr.32	s13, [r5]
 512:Src/bno055/bno055.c **** };
ARM GAS  /tmp/cc9CDFEk.s 			page 85


 2921              		.loc 1 512 5 is_stmt 1 view .LVU754
 513:Src/bno055/bno055.c **** 
 2922              		.loc 1 513 1 is_stmt 0 view .LVU755
 2923 0066 07B0     		add	sp, sp, #28
 2924              	.LCFI100:
 2925              		.cfi_def_cfa_offset 20
 2926              		@ sp needed
 2927 0068 F0BD     		pop	{r4, r5, r6, r7, pc}
 2928              	.LVL317:
 2929              	.L147:
 513:Src/bno055/bno055.c **** 
 2930              		.loc 1 513 1 view .LVU756
 2931 006a 00BF     		.align	2
 2932              	.L146:
 2933 006c 00006144 		.word	1147207680
 2934              		.cfi_endproc
 2935              	.LFE145:
 2937              		.section	.text.bno055_linear_acc_z,"ax",%progbits
 2938              		.align	1
 2939              		.p2align 2,,3
 2940              		.global	bno055_linear_acc_z
 2941              		.syntax unified
 2942              		.thumb
 2943              		.thumb_func
 2944              		.fpu fpv4-sp-d16
 2946              	bno055_linear_acc_z:
 2947              	.LVL318:
 2948              	.LFB141:
 354:Src/bno055/bno055.c ****     error_bno err;
 2949              		.loc 1 354 56 is_stmt 1 view -0
 2950              		.cfi_startproc
 2951              		@ args = 0, pretend = 0, frame = 16
 2952              		@ frame_needed = 0, uses_anonymous_args = 0
 355:Src/bno055/bno055.c **** #ifdef BNO_AUTO_PAGE_SET
 2953              		.loc 1 355 5 view .LVU758
 361:Src/bno055/bno055.c ****     if ((err = bno055_read_regs(*imu, BNO_LIA_DATA_Z_LSB, data, 2)) != BNO_OK) {
 2954              		.loc 1 361 5 view .LVU759
 362:Src/bno055/bno055.c ****         return err;
 2955              		.loc 1 362 5 view .LVU760
 354:Src/bno055/bno055.c ****     error_bno err;
 2956              		.loc 1 354 56 is_stmt 0 view .LVU761
 2957 0000 F0B5     		push	{r4, r5, r6, r7, lr}
 2958              	.LCFI101:
 2959              		.cfi_def_cfa_offset 20
 2960              		.cfi_offset 4, -20
 2961              		.cfi_offset 5, -16
 2962              		.cfi_offset 6, -12
 2963              		.cfi_offset 7, -8
 2964              		.cfi_offset 14, -4
 2965 0002 87B0     		sub	sp, sp, #28
 2966              	.LCFI102:
 2967              		.cfi_def_cfa_offset 48
 2968 0004 0668     		ldr	r6, [r0]
 2969              	.LVL319:
 2970              	.LBB204:
 2971              	.LBB205:
1226:Src/bno055/bno055.c ****     if (err != HAL_OK) {
ARM GAS  /tmp/cc9CDFEk.s 			page 86


 2972              		.loc 1 1226 11 view .LVU762
 2973 0006 4FF0FF37 		mov	r7, #-1
 2974 000a 2C23     		movs	r3, #44
 2975 000c 0097     		str	r7, [sp]
 2976              	.LVL320:
1226:Src/bno055/bno055.c ****     if (err != HAL_OK) {
 2977              		.loc 1 1226 11 view .LVU763
 2978 000e 8DF81330 		strb	r3, [sp, #19]
 2979              	.LVL321:
1226:Src/bno055/bno055.c ****     if (err != HAL_OK) {
 2980              		.loc 1 1226 11 view .LVU764
 2981              	.LBE205:
 2982              	.LBI204:
1220:Src/bno055/bno055.c ****                            uint32_t buf_size) {
 2983              		.loc 1 1220 11 is_stmt 1 view .LVU765
 2984              	.LBB206:
1222:Src/bno055/bno055.c ****     // err = HAL_I2C_Mem_Read(imu.i2c, imu.addr, addr, I2C_MEMADD_SIZE_8BIT,
 2985              		.loc 1 1222 5 view .LVU766
1226:Src/bno055/bno055.c ****     if (err != HAL_OK) {
 2986              		.loc 1 1226 5 view .LVU767
 2987              	.LBE206:
 2988              	.LBE204:
 354:Src/bno055/bno055.c ****     error_bno err;
 2989              		.loc 1 354 56 is_stmt 0 view .LVU768
 2990 0012 0446     		mov	r4, r0
 2991 0014 0D46     		mov	r5, r1
 2992              	.LBB209:
 2993              	.LBB207:
1226:Src/bno055/bno055.c ****     if (err != HAL_OK) {
 2994              		.loc 1 1226 11 view .LVU769
 2995 0016 0123     		movs	r3, #1
 2996              	.LVL322:
1226:Src/bno055/bno055.c ****     if (err != HAL_OK) {
 2997              		.loc 1 1226 11 view .LVU770
 2998 0018 8179     		ldrb	r1, [r0, #6]	@ zero_extendqisi2
 2999              	.LVL323:
1226:Src/bno055/bno055.c ****     if (err != HAL_OK) {
 3000              		.loc 1 1226 11 view .LVU771
 3001 001a 0391     		str	r1, [sp, #12]
 3002 001c 0DF11302 		add	r2, sp, #19
 3003              	.LVL324:
1226:Src/bno055/bno055.c ****     if (err != HAL_OK) {
 3004              		.loc 1 1226 11 view .LVU772
 3005 0020 3046     		mov	r0, r6
 3006              	.LVL325:
1226:Src/bno055/bno055.c ****     if (err != HAL_OK) {
 3007              		.loc 1 1226 11 view .LVU773
 3008 0022 FFF7FEFF 		bl	HAL_I2C_Master_Transmit
 3009              	.LVL326:
1227:Src/bno055/bno055.c ****         return BNO_ERR_I2C;
 3010              		.loc 1 1227 5 is_stmt 1 view .LVU774
1227:Src/bno055/bno055.c ****         return BNO_ERR_I2C;
 3011              		.loc 1 1227 8 is_stmt 0 view .LVU775
 3012 0026 0399     		ldr	r1, [sp, #12]
 3013 0028 10B1     		cbz	r0, .L149
 3014              	.L151:
 3015              	.LVL327:
ARM GAS  /tmp/cc9CDFEk.s 			page 87


1228:Src/bno055/bno055.c ****     }
 3016              		.loc 1 1228 16 view .LVU776
 3017 002a 0120     		movs	r0, #1
 3018              	.LBE207:
 3019              	.LBE209:
 370:Src/bno055/bno055.c **** 
 3020              		.loc 1 370 1 view .LVU777
 3021 002c 07B0     		add	sp, sp, #28
 3022              	.LCFI103:
 3023              		.cfi_remember_state
 3024              		.cfi_def_cfa_offset 20
 3025              		@ sp needed
 3026 002e F0BD     		pop	{r4, r5, r6, r7, pc}
 3027              	.LVL328:
 3028              	.L149:
 3029              	.LCFI104:
 3030              		.cfi_restore_state
 3031              	.LBB210:
 3032              	.LBB208:
1230:Src/bno055/bno055.c ****         HAL_I2C_Master_Receive(imu.i2c, imu.addr, buf, buf_size, HAL_MAX_DELAY);
 3033              		.loc 1 1230 5 is_stmt 1 view .LVU778
1231:Src/bno055/bno055.c ****     if (err != HAL_OK) {
 3034              		.loc 1 1231 9 is_stmt 0 view .LVU779
 3035 0030 0097     		str	r7, [sp]
 3036 0032 0223     		movs	r3, #2
 3037 0034 3046     		mov	r0, r6
 3038              	.LVL329:
1231:Src/bno055/bno055.c ****     if (err != HAL_OK) {
 3039              		.loc 1 1231 9 view .LVU780
 3040 0036 05AA     		add	r2, sp, #20
 3041              	.LVL330:
1231:Src/bno055/bno055.c ****     if (err != HAL_OK) {
 3042              		.loc 1 1231 9 view .LVU781
 3043 0038 FFF7FEFF 		bl	HAL_I2C_Master_Receive
 3044              	.LVL331:
 3045              		.loc 1 1232 5 is_stmt 1 view .LVU782
 3046              		.loc 1 1232 8 is_stmt 0 view .LVU783
 3047 003c 0028     		cmp	r0, #0
 3048 003e F4D1     		bne	.L151
 3049              	.LVL332:
 3050              		.loc 1 1232 8 view .LVU784
 3051              	.LBE208:
 3052              	.LBE210:
 366:Src/bno055/bno055.c ****            ((imu->_acc_unit == BNO_ACC_UNITSEL_M_S2) ? BNO_ACC_SCALE_M_2
 3053              		.loc 1 366 5 is_stmt 1 view .LVU785
 366:Src/bno055/bno055.c ****            ((imu->_acc_unit == BNO_ACC_UNITSEL_M_S2) ? BNO_ACC_SCALE_M_2
 3054              		.loc 1 366 44 is_stmt 0 view .LVU786
 3055 0040 BDF91430 		ldrsh	r3, [sp, #20]
 3056 0044 07EE903A 		vmov	s15, r3	@ int
 368:Src/bno055/bno055.c ****     return BNO_OK;
 3057              		.loc 1 368 54 view .LVU787
 3058 0048 A37B     		ldrb	r3, [r4, #14]	@ zero_extendqisi2
 366:Src/bno055/bno055.c ****            ((imu->_acc_unit == BNO_ACC_UNITSEL_M_S2) ? BNO_ACC_SCALE_M_2
 3059              		.loc 1 366 44 view .LVU788
 3060 004a F8EEE77A 		vcvt.f32.s32	s15, s15
 368:Src/bno055/bno055.c ****     return BNO_OK;
 3061              		.loc 1 368 54 view .LVU789
ARM GAS  /tmp/cc9CDFEk.s 			page 88


 3062 004e 1BB9     		cbnz	r3, .L152
 366:Src/bno055/bno055.c ****            ((imu->_acc_unit == BNO_ACC_UNITSEL_M_S2) ? BNO_ACC_SCALE_M_2
 3063              		.loc 1 366 44 view .LVU790
 3064 0050 9FED037A 		vldr.32	s14, .L154
 3065 0054 C7EE877A 		vdiv.f32	s15, s15, s14
 3066              	.L152:
 366:Src/bno055/bno055.c ****            ((imu->_acc_unit == BNO_ACC_UNITSEL_M_S2) ? BNO_ACC_SCALE_M_2
 3067              		.loc 1 366 10 view .LVU791
 3068 0058 C5ED007A 		vstr.32	s15, [r5]
 369:Src/bno055/bno055.c **** };
 3069              		.loc 1 369 5 is_stmt 1 view .LVU792
 370:Src/bno055/bno055.c **** 
 3070              		.loc 1 370 1 is_stmt 0 view .LVU793
 3071 005c 07B0     		add	sp, sp, #28
 3072              	.LCFI105:
 3073              		.cfi_def_cfa_offset 20
 3074              		@ sp needed
 3075 005e F0BD     		pop	{r4, r5, r6, r7, pc}
 3076              	.LVL333:
 3077              	.L155:
 370:Src/bno055/bno055.c **** 
 3078              		.loc 1 370 1 view .LVU794
 3079              		.align	2
 3080              	.L154:
 3081 0060 0000C842 		.word	1120403456
 3082              		.cfi_endproc
 3083              	.LFE141:
 3085              		.section	.text.bno055_gyro_x,"ax",%progbits
 3086              		.align	1
 3087              		.p2align 2,,3
 3088              		.global	bno055_gyro_x
 3089              		.syntax unified
 3090              		.thumb
 3091              		.thumb_func
 3092              		.fpu fpv4-sp-d16
 3094              	bno055_gyro_x:
 3095              	.LVL334:
 3096              	.LFB143:
 427:Src/bno055/bno055.c ****     error_bno err;
 3097              		.loc 1 427 50 is_stmt 1 view -0
 3098              		.cfi_startproc
 3099              		@ args = 0, pretend = 0, frame = 16
 3100              		@ frame_needed = 0, uses_anonymous_args = 0
 428:Src/bno055/bno055.c **** #ifdef BNO_AUTO_PAGE_SET
 3101              		.loc 1 428 5 view .LVU796
 434:Src/bno055/bno055.c ****     if ((err = bno055_read_regs(*imu, BNO_GYR_DATA_X_LSB, data, 2)) != BNO_OK) {
 3102              		.loc 1 434 5 view .LVU797
 435:Src/bno055/bno055.c ****         return err;
 3103              		.loc 1 435 5 view .LVU798
 427:Src/bno055/bno055.c ****     error_bno err;
 3104              		.loc 1 427 50 is_stmt 0 view .LVU799
 3105 0000 F0B5     		push	{r4, r5, r6, r7, lr}
 3106              	.LCFI106:
 3107              		.cfi_def_cfa_offset 20
 3108              		.cfi_offset 4, -20
 3109              		.cfi_offset 5, -16
 3110              		.cfi_offset 6, -12
ARM GAS  /tmp/cc9CDFEk.s 			page 89


 3111              		.cfi_offset 7, -8
 3112              		.cfi_offset 14, -4
 3113 0002 87B0     		sub	sp, sp, #28
 3114              	.LCFI107:
 3115              		.cfi_def_cfa_offset 48
 3116 0004 0668     		ldr	r6, [r0]
 3117              	.LVL335:
 3118              	.LBB213:
 3119              	.LBB214:
1226:Src/bno055/bno055.c ****     if (err != HAL_OK) {
 3120              		.loc 1 1226 11 view .LVU800
 3121 0006 4FF0FF37 		mov	r7, #-1
 3122 000a 1423     		movs	r3, #20
 3123 000c 0097     		str	r7, [sp]
 3124              	.LVL336:
1226:Src/bno055/bno055.c ****     if (err != HAL_OK) {
 3125              		.loc 1 1226 11 view .LVU801
 3126 000e 8DF81330 		strb	r3, [sp, #19]
 3127              	.LVL337:
1226:Src/bno055/bno055.c ****     if (err != HAL_OK) {
 3128              		.loc 1 1226 11 view .LVU802
 3129              	.LBE214:
 3130              	.LBI213:
1220:Src/bno055/bno055.c ****                            uint32_t buf_size) {
 3131              		.loc 1 1220 11 is_stmt 1 view .LVU803
 3132              	.LBB215:
1222:Src/bno055/bno055.c ****     // err = HAL_I2C_Mem_Read(imu.i2c, imu.addr, addr, I2C_MEMADD_SIZE_8BIT,
 3133              		.loc 1 1222 5 view .LVU804
1226:Src/bno055/bno055.c ****     if (err != HAL_OK) {
 3134              		.loc 1 1226 5 view .LVU805
 3135              	.LBE215:
 3136              	.LBE213:
 427:Src/bno055/bno055.c ****     error_bno err;
 3137              		.loc 1 427 50 is_stmt 0 view .LVU806
 3138 0012 0446     		mov	r4, r0
 3139 0014 0D46     		mov	r5, r1
 3140              	.LBB218:
 3141              	.LBB216:
1226:Src/bno055/bno055.c ****     if (err != HAL_OK) {
 3142              		.loc 1 1226 11 view .LVU807
 3143 0016 0123     		movs	r3, #1
 3144              	.LVL338:
1226:Src/bno055/bno055.c ****     if (err != HAL_OK) {
 3145              		.loc 1 1226 11 view .LVU808
 3146 0018 8179     		ldrb	r1, [r0, #6]	@ zero_extendqisi2
 3147              	.LVL339:
1226:Src/bno055/bno055.c ****     if (err != HAL_OK) {
 3148              		.loc 1 1226 11 view .LVU809
 3149 001a 0391     		str	r1, [sp, #12]
 3150 001c 0DF11302 		add	r2, sp, #19
 3151              	.LVL340:
1226:Src/bno055/bno055.c ****     if (err != HAL_OK) {
 3152              		.loc 1 1226 11 view .LVU810
 3153 0020 3046     		mov	r0, r6
 3154              	.LVL341:
1226:Src/bno055/bno055.c ****     if (err != HAL_OK) {
 3155              		.loc 1 1226 11 view .LVU811
ARM GAS  /tmp/cc9CDFEk.s 			page 90


 3156 0022 FFF7FEFF 		bl	HAL_I2C_Master_Transmit
 3157              	.LVL342:
1227:Src/bno055/bno055.c ****         return BNO_ERR_I2C;
 3158              		.loc 1 1227 5 is_stmt 1 view .LVU812
1227:Src/bno055/bno055.c ****         return BNO_ERR_I2C;
 3159              		.loc 1 1227 8 is_stmt 0 view .LVU813
 3160 0026 0399     		ldr	r1, [sp, #12]
 3161 0028 10B1     		cbz	r0, .L157
 3162              	.L159:
 3163              	.LVL343:
1228:Src/bno055/bno055.c ****     }
 3164              		.loc 1 1228 16 view .LVU814
 3165 002a 0120     		movs	r0, #1
 3166              	.LBE216:
 3167              	.LBE218:
 443:Src/bno055/bno055.c **** 
 3168              		.loc 1 443 1 view .LVU815
 3169 002c 07B0     		add	sp, sp, #28
 3170              	.LCFI108:
 3171              		.cfi_remember_state
 3172              		.cfi_def_cfa_offset 20
 3173              		@ sp needed
 3174 002e F0BD     		pop	{r4, r5, r6, r7, pc}
 3175              	.LVL344:
 3176              	.L157:
 3177              	.LCFI109:
 3178              		.cfi_restore_state
 3179              	.LBB219:
 3180              	.LBB217:
